ccopy_reg
_reconstructor
p1
(cmatplotlib.font_manager
FontManager
p2
c__builtin__
object
p3
NtRp4
(dp5
S'ttflist'
p6
(lp7
g1
(cmatplotlib.font_manager
FontEntry
p8
g3
NtRp9
(dp10
S'style'
p11
Vnormal
p12
sS'name'
p13
S'Bitstream Vera Serif'
p14
sS'weight'
p15
I400
sS'stretch'
p16
g12
sS'variant'
p17
g12
sS'fname'
p18
V/home/kyle/anaconda/lib/python2.7/site-packages/matplotlib/mpl-data/fonts/ttf/VeraSe.ttf
p19
sS'size'
p20
Vscalable
p21
sbag1
(g8
g3
NtRp22
(dp23
g11
g12
sg13
S'STIXGeneral'
p24
sg15
I400
sg16
g12
sg17
g12
sg18
V/home/kyle/anaconda/lib/python2.7/site-packages/matplotlib/mpl-data/fonts/ttf/STIXGeneral.ttf
p25
sg20
g21
sbag1
(g8
g3
NtRp26
(dp27
g11
Vitalic
p28
sg13
S'STIXNonUnicode'
p29
sg15
I400
sg16
g12
sg17
g12
sg18
V/home/kyle/anaconda/lib/python2.7/site-packages/matplotlib/mpl-data/fonts/ttf/STIXNonUniIta.ttf
p30
sg20
g21
sbag1
(g8
g3
NtRp31
(dp32
g11
g12
sg13
S'cmtt10'
p33
sg15
I400
sg16
g12
sg17
g12
sg18
V/home/kyle/anaconda/lib/python2.7/site-packages/matplotlib/mpl-data/fonts/ttf/cmtt10.ttf
p34
sg20
g21
sbag1
(g8
g3
NtRp35
(dp36
g11
Voblique
p37
sg13
S'Bitstream Vera Sans Mono'
p38
sg15
I400
sg16
g12
sg17
g12
sg18
V/home/kyle/anaconda/lib/python2.7/site-packages/matplotlib/mpl-data/fonts/ttf/VeraMoIt.ttf
p39
sg20
g21
sbag1
(g8
g3
NtRp40
(dp41
g11
g12
sg13
S'cmsy10'
p42
sg15
I400
sg16
g12
sg17
g12
sg18
V/home/kyle/anaconda/lib/python2.7/site-packages/matplotlib/mpl-data/fonts/ttf/cmsy10.ttf
p43
sg20
g21
sbag1
(g8
g3
NtRp44
(dp45
g11
g28
sg13
S'STIXNonUnicode'
p46
sg15
I700
sg16
g12
sg17
g12
sg18
V/home/kyle/anaconda/lib/python2.7/site-packages/matplotlib/mpl-data/fonts/ttf/STIXNonUniBolIta.ttf
p47
sg20
g21
sbag1
(g8
g3
NtRp48
(dp49
g11
g12
sg13
S'Bitstream Vera Serif'
p50
sg15
I700
sg16
g12
sg17
g12
sg18
V/home/kyle/anaconda/lib/python2.7/site-packages/matplotlib/mpl-data/fonts/ttf/VeraSeBd.ttf
p51
sg20
g21
sbag1
(g8
g3
NtRp52
(dp53
g11
g12
sg13
S'STIXSizeOneSym'
p54
sg15
I400
sg16
g12
sg17
g12
sg18
V/home/kyle/anaconda/lib/python2.7/site-packages/matplotlib/mpl-data/fonts/ttf/STIXSizOneSymReg.ttf
p55
sg20
g21
sbag1
(g8
g3
NtRp56
(dp57
g11
g12
sg13
S'STIXSizeOneSym'
p58
sg15
I700
sg16
g12
sg17
g12
sg18
V/home/kyle/anaconda/lib/python2.7/site-packages/matplotlib/mpl-data/fonts/ttf/STIXSizOneSymBol.ttf
p59
sg20
g21
sbag1
(g8
g3
NtRp60
(dp61
g11
g12
sg13
S'cmr10'
p62
sg15
I400
sg16
g12
sg17
g12
sg18
V/home/kyle/anaconda/lib/python2.7/site-packages/matplotlib/mpl-data/fonts/ttf/cmr10.ttf
p63
sg20
g21
sbag1
(g8
g3
NtRp64
(dp65
g11
g37
sg13
S'Bitstream Vera Sans'
p66
sg15
I400
sg16
g12
sg17
g12
sg18
V/home/kyle/anaconda/lib/python2.7/site-packages/matplotlib/mpl-data/fonts/ttf/VeraIt.ttf
p67
sg20
g21
sbag1
(g8
g3
NtRp68
(dp69
g11
g12
sg13
S'cmmi10'
p70
sg15
I400
sg16
g12
sg17
g12
sg18
V/home/kyle/anaconda/lib/python2.7/site-packages/matplotlib/mpl-data/fonts/ttf/cmmi10.ttf
p71
sg20
g21
sbag1
(g8
g3
NtRp72
(dp73
g11
g12
sg13
S'Bitstream Vera Sans Mono'
p74
sg15
I700
sg16
g12
sg17
g12
sg18
V/home/kyle/anaconda/lib/python2.7/site-packages/matplotlib/mpl-data/fonts/ttf/VeraMoBd.ttf
p75
sg20
g21
sbag1
(g8
g3
NtRp76
(dp77
g11
g12
sg13
S'Bitstream Vera Sans'
p78
sg15
I400
sg16
g12
sg17
g12
sg18
V/home/kyle/anaconda/lib/python2.7/site-packages/matplotlib/mpl-data/fonts/ttf/Vera.ttf
p79
sg20
g21
sbag1
(g8
g3
NtRp80
(dp81
g11
g28
sg13
S'STIXGeneral'
p82
sg15
I400
sg16
g12
sg17
g12
sg18
V/home/kyle/anaconda/lib/python2.7/site-packages/matplotlib/mpl-data/fonts/ttf/STIXGeneralItalic.ttf
p83
sg20
g21
sbag1
(g8
g3
NtRp84
(dp85
g11
g12
sg13
S'STIXGeneral'
p86
sg15
I700
sg16
g12
sg17
g12
sg18
V/home/kyle/anaconda/lib/python2.7/site-packages/matplotlib/mpl-data/fonts/ttf/STIXGeneralBol.ttf
p87
sg20
g21
sbag1
(g8
g3
NtRp88
(dp89
g11
g12
sg13
S'Bitstream Vera Sans'
p90
sg15
I700
sg16
g12
sg17
g12
sg18
V/home/kyle/anaconda/lib/python2.7/site-packages/matplotlib/mpl-data/fonts/ttf/VeraBd.ttf
p91
sg20
g21
sbag1
(g8
g3
NtRp92
(dp93
g11
g12
sg13
S'STIXNonUnicode'
p94
sg15
I400
sg16
g12
sg17
g12
sg18
V/home/kyle/anaconda/lib/python2.7/site-packages/matplotlib/mpl-data/fonts/ttf/STIXNonUni.ttf
p95
sg20
g21
sbag1
(g8
g3
NtRp96
(dp97
g11
g12
sg13
S'STIXSizeTwoSym'
p98
sg15
I700
sg16
g12
sg17
g12
sg18
V/home/kyle/anaconda/lib/python2.7/site-packages/matplotlib/mpl-data/fonts/ttf/STIXSizTwoSymBol.ttf
p99
sg20
g21
sbag1
(g8
g3
NtRp100
(dp101
g11
g12
sg13
S'STIXSizeFiveSym'
p102
sg15
I400
sg16
g12
sg17
g12
sg18
V/home/kyle/anaconda/lib/python2.7/site-packages/matplotlib/mpl-data/fonts/ttf/STIXSizFiveSymReg.ttf
p103
sg20
g21
sbag1
(g8
g3
NtRp104
(dp105
g11
g12
sg13
S'STIXSizeThreeSym'
p106
sg15
I700
sg16
g12
sg17
g12
sg18
V/home/kyle/anaconda/lib/python2.7/site-packages/matplotlib/mpl-data/fonts/ttf/STIXSizThreeSymBol.ttf
p107
sg20
g21
sbag1
(g8
g3
NtRp108
(dp109
g11
g37
sg13
S'Bitstream Vera Sans'
p110
sg15
I700
sg16
g12
sg17
g12
sg18
V/home/kyle/anaconda/lib/python2.7/site-packages/matplotlib/mpl-data/fonts/ttf/VeraBI.ttf
p111
sg20
g21
sbag1
(g8
g3
NtRp112
(dp113
g11
g12
sg13
S'STIXSizeThreeSym'
p114
sg15
I400
sg16
g12
sg17
g12
sg18
V/home/kyle/anaconda/lib/python2.7/site-packages/matplotlib/mpl-data/fonts/ttf/STIXSizThreeSymReg.ttf
p115
sg20
g21
sbag1
(g8
g3
NtRp116
(dp117
g11
g12
sg13
S'STIXSizeFourSym'
p118
sg15
I400
sg16
g12
sg17
g12
sg18
V/home/kyle/anaconda/lib/python2.7/site-packages/matplotlib/mpl-data/fonts/ttf/STIXSizFourSymReg.ttf
p119
sg20
g21
sbag1
(g8
g3
NtRp120
(dp121
g11
g12
sg13
S'Bitstream Vera Sans Mono'
p122
sg15
I400
sg16
g12
sg17
g12
sg18
V/home/kyle/anaconda/lib/python2.7/site-packages/matplotlib/mpl-data/fonts/ttf/VeraMono.ttf
p123
sg20
g21
sbag1
(g8
g3
NtRp124
(dp125
g11
g12
sg13
S'cmss10'
p126
sg15
I400
sg16
g12
sg17
g12
sg18
V/home/kyle/anaconda/lib/python2.7/site-packages/matplotlib/mpl-data/fonts/ttf/cmss10.ttf
p127
sg20
g21
sbag1
(g8
g3
NtRp128
(dp129
g11
g12
sg13
S'STIXSizeFourSym'
p130
sg15
I700
sg16
g12
sg17
g12
sg18
V/home/kyle/anaconda/lib/python2.7/site-packages/matplotlib/mpl-data/fonts/ttf/STIXSizFourSymBol.ttf
p131
sg20
g21
sbag1
(g8
g3
NtRp132
(dp133
g11
g12
sg13
S'STIXSizeTwoSym'
p134
sg15
I400
sg16
g12
sg17
g12
sg18
V/home/kyle/anaconda/lib/python2.7/site-packages/matplotlib/mpl-data/fonts/ttf/STIXSizTwoSymReg.ttf
p135
sg20
g21
sbag1
(g8
g3
NtRp136
(dp137
g11
g12
sg13
S'cmb10'
p138
sg15
I400
sg16
g12
sg17
g12
sg18
V/home/kyle/anaconda/lib/python2.7/site-packages/matplotlib/mpl-data/fonts/ttf/cmb10.ttf
p139
sg20
g21
sbag1
(g8
g3
NtRp140
(dp141
g11
g12
sg13
S'STIXNonUnicode'
p142
sg15
I700
sg16
g12
sg17
g12
sg18
V/home/kyle/anaconda/lib/python2.7/site-packages/matplotlib/mpl-data/fonts/ttf/STIXNonUniBol.ttf
p143
sg20
g21
sbag1
(g8
g3
NtRp144
(dp145
g11
g28
sg13
S'STIXGeneral'
p146
sg15
I700
sg16
g12
sg17
g12
sg18
V/home/kyle/anaconda/lib/python2.7/site-packages/matplotlib/mpl-data/fonts/ttf/STIXGeneralBolIta.ttf
p147
sg20
g21
sbag1
(g8
g3
NtRp148
(dp149
g11
g12
sg13
S'cmex10'
p150
sg15
I400
sg16
g12
sg17
g12
sg18
V/home/kyle/anaconda/lib/python2.7/site-packages/matplotlib/mpl-data/fonts/ttf/cmex10.ttf
p151
sg20
g21
sbag1
(g8
g3
NtRp152
(dp153
g11
g37
sg13
S'Bitstream Vera Sans Mono'
p154
sg15
I700
sg16
g12
sg17
g12
sg18
V/home/kyle/anaconda/lib/python2.7/site-packages/matplotlib/mpl-data/fonts/ttf/VeraMoBI.ttf
p155
sg20
g21
sbag1
(g8
g3
NtRp156
(dp157
g11
g12
sg13
S'STIXIntegralsUp'
p158
sg15
I400
sg16
g12
sg17
g12
sg18
V/usr/share/fonts/opentype/stix/STIXIntegralsUp-Regular.otf
p159
sg20
g21
sbag1
(g8
g3
NtRp160
(dp161
g11
g12
sg13
S'Droid Sans Ethiopic'
p162
sg15
I700
sg16
g12
sg17
g12
sg18
V/usr/share/fonts/truetype/droid/DroidSansEthiopic-Bold.ttf
p163
sg20
g21
sbag1
(g8
g3
NtRp164
(dp165
g11
g12
sg13
S'Inconsolata'
p166
sg15
I400
sg16
g12
sg17
g12
sg18
V/usr/share/fonts/truetype/inconsolata/Inconsolata.otf
p167
sg20
g21
sbag1
(g8
g3
NtRp168
(dp169
g11
g12
sg13
S'Gillius ADF Cd'
p170
sg15
I400
sg16
g12
sg17
g12
sg18
V/usr/share/fonts/truetype/adf/GilliusADFCd-Regular.otf
p171
sg20
g21
sbag1
(g8
g3
NtRp172
(dp173
g11
g12
sg13
S'KacstScreen'
p174
sg15
I400
sg16
g12
sg17
g12
sg18
V/usr/share/fonts/truetype/kacst/KacstScreen.ttf
p175
sg20
g21
sbag1
(g8
g3
NtRp176
(dp177
g11
g12
sg13
S'MathJax_Math'
p178
sg15
I400
sg16
g12
sg17
g12
sg18
V/usr/share/fonts/opentype/mathjax/MathJax_Math-Regular.otf
p179
sg20
g21
sbag1
(g8
g3
NtRp180
(dp181
g11
g12
sg13
S'KacstTitle'
p182
sg15
I400
sg16
g12
sg17
g12
sg18
V/usr/share/fonts/truetype/kacst/KacstTitle.ttf
p183
sg20
g21
sbag1
(g8
g3
NtRp184
(dp185
g11
g37
sg13
S'Norasi'
p186
sg15
I400
sg16
g12
sg17
g12
sg18
V/usr/share/fonts/truetype/tlwg/Norasi-Oblique.ttf
p187
sg20
g21
sbag1
(g8
g3
NtRp188
(dp189
g11
g28
sg13
S'Gentium Basic'
p190
sg15
I400
sg16
g12
sg17
g12
sg18
V/usr/share/fonts/truetype/gentium-basic/GenBasI.ttf
p191
sg20
g21
sbag1
(g8
g3
NtRp192
(dp193
g11
g12
sg13
S'Junicode'
p194
sg15
I400
sg16
g12
sg17
g12
sg18
V/usr/share/fonts/truetype/junicode/Junicode.ttf
p195
sg20
g21
sbag1
(g8
g3
NtRp196
(dp197
g11
g28
sg13
S'Gentium Book Basic'
p198
sg15
I700
sg16
g12
sg17
g12
sg18
V/usr/share/fonts/truetype/gentium-basic/GenBkBasBI.ttf
p199
sg20
g21
sbag1
(g8
g3
NtRp200
(dp201
g11
g12
sg13
S'TakaoPGothic'
p202
sg15
I400
sg16
g12
sg17
g12
sg18
V/usr/share/fonts/truetype/fonts-japanese-gothic.ttf
p203
sg20
g21
sbag1
(g8
g3
NtRp204
(dp205
g11
g12
sg13
S'Gentium Book Basic'
p206
sg15
I400
sg16
g12
sg17
g12
sg18
V/usr/share/fonts/truetype/gentium-basic/GenBkBasR.ttf
p207
sg20
g21
sbag1
(g8
g3
NtRp208
(dp209
g11
g12
sg13
S'DejaVu Serif'
p210
sg15
I400
sg16
g12
sg17
g12
sg18
V/usr/share/fonts/truetype/dejavu/DejaVuSerif.ttf
p211
sg20
g21
sbag1
(g8
g3
NtRp212
(dp213
g11
g12
sg13
S'Linux Libertine O'
p214
sg15
I700
sg16
g12
sg17
g12
sg18
V/usr/share/fonts/opentype/linux-libertine/LinLibertine_RZ.otf
p215
sg20
g21
sbag1
(g8
g3
NtRp216
(dp217
g11
g12
sg13
S'Asana Math'
p218
sg15
I400
sg16
g12
sg17
g12
sg18
V/usr/share/fonts/truetype/asana-math/Asana-Math.otf
p219
sg20
g21
sbag1
(g8
g3
NtRp220
(dp221
g11
g28
sg13
S'MathJax_Main'
p222
sg15
I400
sg16
g12
sg17
g12
sg18
V/usr/share/fonts/opentype/mathjax/MathJax_Main-Italic.otf
p223
sg20
g21
sbag1
(g8
g3
NtRp224
(dp225
g11
g12
sg13
S'Accanthis ADF Std No2'
p226
sg15
I700
sg16
g12
sg17
g12
sg18
V/usr/share/fonts/truetype/adf/AccanthisADFStdNo2-Bold.otf
p227
sg20
g21
sbag1
(g8
g3
NtRp228
(dp229
g11
g28
sg13
S'GFS Didot'
p230
sg15
I700
sg16
g12
sg17
g12
sg18
V/usr/share/fonts/truetype/didot/GFSDidotBoldItalic.otf
p231
sg20
g21
sbag1
(g8
g3
NtRp232
(dp233
g11
g12
sg13
S'GFS Olga'
p234
sg15
I400
sg16
g12
sg17
g12
sg18
V/usr/share/fonts/truetype/olga/GFSOlga.otf
p235
sg20
g21
sbag1
(g8
g3
NtRp236
(dp237
g11
g12
sg13
S'DejaVu Serif'
p238
sg15
I700
sg16
Vcondensed
p239
sg17
g12
sg18
V/usr/share/fonts/truetype/dejavu/DejaVuSerifCondensed-Bold.ttf
p240
sg20
g21
sbag1
(g8
g3
NtRp241
(dp242
g11
g12
sg13
S'Gillius ADF No2 Cd'
p243
sg15
I700
sg16
g12
sg17
g12
sg18
V/usr/share/fonts/truetype/adf/GilliusADFNo2Cd-Bold.otf
p244
sg20
g21
sbag1
(g8
g3
NtRp245
(dp246
g11
g12
sg13
S'Tlwg Typist'
p247
sg15
I400
sg16
g12
sg17
g12
sg18
V/usr/share/fonts/truetype/tlwg/TlwgTypist.ttf
p248
sg20
g21
sbag1
(g8
g3
NtRp249
(dp250
g11
g12
sg13
S'NanumGothic'
p251
sg15
I400
sg16
g12
sg17
g12
sg18
V/usr/share/fonts/truetype/nanum/NanumGothic.ttf
p252
sg20
g21
sbag1
(g8
g3
NtRp253
(dp254
g11
g28
sg13
S'Amiri'
p255
sg15
I400
sg16
g12
sg17
g12
sg18
V/usr/share/fonts/opentype/fonts-hosny-amiri/amiri-slanted.ttf
p256
sg20
g21
sbag1
(g8
g3
NtRp257
(dp258
g11
g12
sg13
S'Lato'
p259
sg15
I700
sg16
g12
sg17
g12
sg18
V/usr/share/fonts/truetype/lato/Lato-Bol.ttf
p260
sg20
g21
sbag1
(g8
g3
NtRp261
(dp262
g11
g12
sg13
S'GFS Artemisia'
p263
sg15
I700
sg16
g12
sg17
g12
sg18
V/usr/share/fonts/truetype/artemisia/GFSArtemisiaBold.otf
p264
sg20
g21
sbag1
(g8
g3
NtRp265
(dp266
g11
g12
sg13
S'Gentium Basic'
p267
sg15
I400
sg16
g12
sg17
g12
sg18
V/usr/share/fonts/truetype/gentium-basic/GenBasR.ttf
p268
sg20
g21
sbag1
(g8
g3
NtRp269
(dp270
g11
g12
sg13
S'Droid Arabic Naskh'
p271
sg15
I400
sg16
g12
sg17
g12
sg18
V/usr/share/fonts/truetype/droid/DroidNaskh-Regular.ttf
p272
sg20
g21
sbag1
(g8
g3
NtRp273
(dp274
g11
g28
sg13
S'Gentium'
p275
sg15
I400
sg16
g12
sg17
g12
sg18
V/usr/share/fonts/truetype/gentium/GenI102.ttf
p276
sg20
g21
sbag1
(g8
g3
NtRp277
(dp278
g11
g12
sg13
S'Comfortaa'
p279
sg15
I200
sg16
g12
sg17
g12
sg18
V/usr/share/fonts/truetype/comfortaa/Comfortaa-Light.ttf
p280
sg20
g21
sbag1
(g8
g3
NtRp281
(dp282
g11
g28
sg13
S'Liberation Sans'
p283
sg15
I400
sg16
g12
sg17
g12
sg18
V/usr/share/fonts/truetype/liberation/LiberationSans-Italic.ttf
p284
sg20
g21
sbag1
(g8
g3
NtRp285
(dp286
g11
g37
sg13
S'DejaVu Sans Mono'
p287
sg15
I400
sg16
g12
sg17
g12
sg18
V/usr/share/fonts/truetype/dejavu/DejaVuSansMono-Oblique.ttf
p288
sg20
g21
sbag1
(g8
g3
NtRp289
(dp290
g11
g12
sg13
S'STIXIntegralsUp'
p291
sg15
I700
sg16
g12
sg17
g12
sg18
V/usr/share/fonts/opentype/stix/STIXIntegralsUp-Bold.otf
p292
sg20
g21
sbag1
(g8
g3
NtRp293
(dp294
g11
g12
sg13
S'FontAwesome'
p295
sg15
I400
sg16
g12
sg17
g12
sg18
V/usr/share/fonts/truetype/font-awesome/fontawesome-webfont.ttf
p296
sg20
g21
sbag1
(g8
g3
NtRp297
(dp298
g11
g12
sg13
S'Droid Sans Hebrew'
p299
sg15
I700
sg16
g12
sg17
g12
sg18
V/usr/share/fonts/truetype/droid/DroidSansHebrew-Bold.ttf
p300
sg20
g21
sbag1
(g8
g3
NtRp301
(dp302
g11
g12
sg13
S'Cabin'
p303
sg15
I500
sg16
g12
sg17
g12
sg18
V/usr/share/fonts/opentype/cabin/Cabin-Medium.otf
p304
sg20
g21
sbag1
(g8
g3
NtRp305
(dp306
g11
g28
sg13
S'DejaVu Serif'
p307
sg15
I700
sg16
g12
sg17
g12
sg18
V/usr/share/fonts/truetype/dejavu/DejaVuSerif-BoldItalic.ttf
p308
sg20
g21
sbag1
(g8
g3
NtRp309
(dp310
g11
g12
sg13
S'Ubuntu Mono'
p311
sg15
I400
sg16
g12
sg17
g12
sg18
V/usr/share/fonts/truetype/ubuntu-font-family/UbuntuMono-R.ttf
p312
sg20
g21
sbag1
(g8
g3
NtRp313
(dp314
g11
g37
sg13
S'Loma'
p315
sg15
I400
sg16
g12
sg17
g12
sg18
V/usr/share/fonts/truetype/tlwg/Loma-Oblique.ttf
p316
sg20
g21
sbag1
(g8
g3
NtRp317
(dp318
g11
g28
sg13
S'Cabin'
p319
sg15
I400
sg16
g12
sg17
g12
sg18
V/usr/share/fonts/opentype/cabin/Cabin-Italic.otf
p320
sg20
g21
sbag1
(g8
g3
NtRp321
(dp322
g11
g12
sg13
S'FreeSerif'
p323
sg15
I700
sg16
g12
sg17
g12
sg18
V/usr/share/fonts/opentype/freefont/FreeSerifBold.otf
p324
sg20
g21
sbag1
(g8
g3
NtRp325
(dp326
g11
g12
sg13
S'FreeSans'
p327
sg15
I400
sg16
g12
sg17
g12
sg18
V/usr/share/fonts/opentype/freefont/FreeSans.otf
p328
sg20
g21
sbag1
(g8
g3
NtRp329
(dp330
g11
g12
sg13
S'KacstNaskh'
p331
sg15
I400
sg16
g12
sg17
g12
sg18
V/usr/share/fonts/truetype/kacst/KacstNaskh.ttf
p332
sg20
g21
sbag1
(g8
g3
NtRp333
(dp334
g11
g28
sg13
S'Kinnari'
p335
sg15
I700
sg16
g12
sg17
g12
sg18
V/usr/share/fonts/truetype/tlwg/Kinnari-BoldItalic.ttf
p336
sg20
g21
sbag1
(g8
g3
NtRp337
(dp338
g11
g12
sg13
S'Sawasdee'
p339
sg15
I400
sg16
g12
sg17
g12
sg18
V/usr/share/fonts/truetype/tlwg/Sawasdee.ttf
p340
sg20
g21
sbag1
(g8
g3
NtRp341
(dp342
g11
g12
sg13
S'STIXSizeThreeSym'
p343
sg15
I400
sg16
g12
sg17
g12
sg18
V/usr/share/fonts/opentype/stix/STIXSizeThreeSym-Regular.otf
p344
sg20
g21
sbag1
(g8
g3
NtRp345
(dp346
g11
g37
sg13
S'DejaVu Sans Mono'
p347
sg15
I700
sg16
g12
sg17
g12
sg18
V/usr/share/fonts/truetype/dejavu/DejaVuSansMono-BoldOblique.ttf
p348
sg20
g21
sbag1
(g8
g3
NtRp349
(dp350
g11
g12
sg13
S'FreeSans'
p351
sg15
I700
sg16
g12
sg17
g12
sg18
V/usr/share/fonts/truetype/freefont/FreeSansBold.ttf
p352
sg20
g21
sbag1
(g8
g3
NtRp353
(dp354
g11
g12
sg13
S'Liberation Serif'
p355
sg15
I400
sg16
g12
sg17
g12
sg18
V/usr/share/fonts/truetype/liberation/LiberationSerif-Regular.ttf
p356
sg20
g21
sbag1
(g8
g3
NtRp357
(dp358
g11
g12
sg13
S'Purisa'
p359
sg15
I700
sg16
g12
sg17
g12
sg18
V/usr/share/fonts/truetype/tlwg/Purisa-Bold.ttf
p360
sg20
g21
sbag1
(g8
g3
NtRp361
(dp362
g11
g12
sg13
S'Tlwg Typist'
p363
sg15
I700
sg16
g12
sg17
g12
sg18
V/usr/share/fonts/truetype/tlwg/TlwgTypist-Bold.ttf
p364
sg20
g21
sbag1
(g8
g3
NtRp365
(dp366
g11
g12
sg13
S'KacstPoster'
p367
sg15
I400
sg16
g12
sg17
g12
sg18
V/usr/share/fonts/truetype/kacst/KacstPoster.ttf
p368
sg20
g21
sbag1
(g8
g3
NtRp369
(dp370
g11
g12
sg13
S'Purisa'
p371
sg15
I400
sg16
g12
sg17
g12
sg18
V/usr/share/fonts/truetype/tlwg/Purisa.ttf
p372
sg20
g21
sbag1
(g8
g3
NtRp373
(dp374
g11
g12
sg13
S'STIXSizeOneSym'
p375
sg15
I700
sg16
g12
sg17
g12
sg18
V/usr/share/fonts/opentype/stix/STIXSizeOneSym-Bold.otf
p376
sg20
g21
sbag1
(g8
g3
NtRp377
(dp378
g11
g28
sg13
S'Accanthis ADF Std No3'
p379
sg15
I400
sg16
g12
sg17
g12
sg18
V/usr/share/fonts/truetype/adf/AccanthisADFStdNo3-Italic.otf
p380
sg20
g21
sbag1
(g8
g3
NtRp381
(dp382
g11
g28
sg13
S'Ubuntu'
p383
sg15
I200
sg16
g12
sg17
g12
sg18
V/usr/share/fonts/truetype/ubuntu-font-family/Ubuntu-LI.ttf
p384
sg20
g21
sbag1
(g8
g3
NtRp385
(dp386
g11
g12
sg13
S'Droid Sans Mono'
p387
sg15
I400
sg16
g12
sg17
g12
sg18
V/usr/share/fonts/truetype/droid/DroidSansMono.ttf
p388
sg20
g21
sbag1
(g8
g3
NtRp389
(dp390
g11
g12
sg13
S'FreeSerif'
p391
sg15
I400
sg16
g12
sg17
g12
sg18
V/usr/share/fonts/opentype/freefont/FreeSerif.otf
p392
sg20
g21
sbag1
(g8
g3
NtRp393
(dp394
g11
g12
sg13
S'STIXIntegralsSm'
p395
sg15
I700
sg16
g12
sg17
g12
sg18
V/usr/share/fonts/opentype/stix/STIXIntegralsSm-Bold.otf
p396
sg20
g21
sbag1
(g8
g3
NtRp397
(dp398
g11
g37
sg13
S'Umpush'
p399
sg15
I400
sg16
g12
sg17
g12
sg18
V/usr/share/fonts/truetype/tlwg/Umpush-Oblique.ttf
p400
sg20
g21
sbag1
(g8
g3
NtRp401
(dp402
g11
g12
sg13
S'NanumGothic'
p403
sg15
I700
sg16
g12
sg17
g12
sg18
V/usr/share/fonts/truetype/nanum/NanumGothicBold.ttf
p404
sg20
g21
sbag1
(g8
g3
NtRp405
(dp406
g11
g28
sg13
S'Liberation Mono'
p407
sg15
I700
sg16
g12
sg17
g12
sg18
V/usr/share/fonts/truetype/liberation/LiberationMono-BoldItalic.ttf
p408
sg20
g21
sbag1
(g8
g3
NtRp409
(dp410
g11
g28
sg13
S'FreeSerif'
p411
sg15
I400
sg16
g12
sg17
g12
sg18
V/usr/share/fonts/opentype/freefont/FreeSerifItalic.otf
p412
sg20
g21
sbag1
(g8
g3
NtRp413
(dp414
g11
g12
sg13
S'Ubuntu Condensed'
p415
sg15
I400
sg16
g239
sg17
g12
sg18
V/usr/share/fonts/truetype/ubuntu-font-family/Ubuntu-C.ttf
p416
sg20
g21
sbag1
(g8
g3
NtRp417
(dp418
g11
g12
sg13
S'IPAGothic'
p419
sg15
I400
sg16
g12
sg17
g12
sg18
V/usr/share/fonts/opentype/ipafont-gothic/ipag.ttf
p420
sg20
g21
sbag1
(g8
g3
NtRp421
(dp422
g11
g12
sg13
S'OpenSymbol'
p423
sg15
I400
sg16
g12
sg17
g12
sg18
V/usr/share/fonts/truetype/openoffice/opens___.ttf
p424
sg20
g21
sbag1
(g8
g3
NtRp425
(dp426
g11
g12
sg13
S'Cabin'
p427
sg15
I700
sg16
g12
sg17
g12
sg18
V/usr/share/fonts/opentype/cabin/Cabin-Bold.otf
p428
sg20
g21
sbag1
(g8
g3
NtRp429
(dp430
g11
g28
sg13
S'Norasi'
p431
sg15
I400
sg16
g12
sg17
g12
sg18
V/usr/share/fonts/truetype/tlwg/Norasi-Italic.ttf
p432
sg20
g21
sbag1
(g8
g3
NtRp433
(dp434
g11
g12
sg13
S'Droid Sans Fallback'
p435
sg15
I400
sg16
g12
sg17
g12
sg18
V/usr/share/fonts/truetype/droid/DroidSansFallbackFull.ttf
p436
sg20
g21
sbag1
(g8
g3
NtRp437
(dp438
g11
g12
sg13
S'Khmer OS System'
p439
sg15
I400
sg16
g12
sg17
g12
sg18
V/usr/share/fonts/truetype/ttf-khmeros-core/KhmerOSsys.ttf
p440
sg20
g21
sbag1
(g8
g3
NtRp441
(dp442
g11
g37
sg13
S'Tlwg Typist'
p443
sg15
I400
sg16
g12
sg17
g12
sg18
V/usr/share/fonts/truetype/tlwg/TlwgTypist-Oblique.ttf
p444
sg20
g21
sbag1
(g8
g3
NtRp445
(dp446
g11
g12
sg13
S'FreeSans'
p447
sg15
I700
sg16
g12
sg17
g12
sg18
V/usr/share/fonts/opentype/freefont/FreeSansBold.otf
p448
sg20
g21
sbag1
(g8
g3
NtRp449
(dp450
g11
g28
sg13
S'Amiri'
p451
sg15
I700
sg16
g12
sg17
g12
sg18
V/usr/share/fonts/opentype/fonts-hosny-amiri/amiri-boldslanted.ttf
p452
sg20
g21
sbag1
(g8
g3
NtRp453
(dp454
g11
g12
sg13
S'Mukti Narrow'
p455
sg15
I700
sg16
g12
sg17
g12
sg18
V/usr/share/fonts/truetype/ttf-indic-fonts-core/MuktiNarrowBold.ttf
p456
sg20
g21
sbag1
(g8
g3
NtRp457
(dp458
g11
g12
sg13
S'DejaVu Sans'
p459
sg15
I700
sg16
g12
sg17
g12
sg18
V/usr/share/fonts/truetype/dejavu/DejaVuSans-Bold.ttf
p460
sg20
g21
sbag1
(g8
g3
NtRp461
(dp462
g11
g28
sg13
S'Ubuntu'
p463
sg15
I400
sg16
g12
sg17
g12
sg18
V/usr/share/fonts/truetype/ubuntu-font-family/Ubuntu-RI.ttf
p464
sg20
g21
sbag1
(g8
g3
NtRp465
(dp466
g11
g12
sg13
S'NanumBarunGothic'
p467
sg15
I400
sg16
g12
sg17
g12
sg18
V/usr/share/fonts/truetype/nanum/NanumBarunGothic.ttf
p468
sg20
g21
sbag1
(g8
g3
NtRp469
(dp470
g11
g12
sg13
S'MathJax_WinChrome'
p471
sg15
I400
sg16
g12
sg17
g12
sg18
V/usr/share/fonts/opentype/mathjax/MathJax_WinChrome-Regular.otf
p472
sg20
g21
sbag1
(g8
g3
NtRp473
(dp474
g11
g12
sg13
S'MathJax_SansSerif'
p475
sg15
I700
sg16
g12
sg17
g12
sg18
V/usr/share/fonts/opentype/mathjax/MathJax_SansSerif-Bold.otf
p476
sg20
g21
sbag1
(g8
g3
NtRp477
(dp478
g11
g12
sg13
S'STIXGeneral'
p479
sg15
I400
sg16
g12
sg17
g12
sg18
V/usr/share/fonts/opentype/stix/STIXGeneral-Regular.otf
p480
sg20
g21
sbag1
(g8
g3
NtRp481
(dp482
g11
g12
sg13
S'Lohit Tamil'
p483
sg15
I400
sg16
g12
sg17
g12
sg18
V/usr/share/fonts/truetype/ttf-indic-fonts-core/lohit_ta.ttf
p484
sg20
g21
sbag1
(g8
g3
NtRp485
(dp486
g11
g28
sg13
S'Lobster Two'
p487
sg15
I700
sg16
g12
sg17
g12
sg18
V/usr/share/fonts/opentype/lobstertwo/LobsterTwo-BoldItalic.otf
p488
sg20
g21
sbag1
(g8
g3
NtRp489
(dp490
g11
g12
sg13
S'Kinnari'
p491
sg15
I400
sg16
g12
sg17
g12
sg18
V/usr/share/fonts/truetype/tlwg/Kinnari.ttf
p492
sg20
g21
sbag1
(g8
g3
NtRp493
(dp494
g11
g28
sg13
S'Ubuntu Mono'
p495
sg15
I700
sg16
g12
sg17
g12
sg18
V/usr/share/fonts/truetype/ubuntu-font-family/UbuntuMono-BI.ttf
p496
sg20
g21
sbag1
(g8
g3
NtRp497
(dp498
g11
g12
sg13
S'Junicode'
p499
sg15
I700
sg16
g12
sg17
g12
sg18
V/usr/share/fonts/truetype/junicode/Junicode-Bold.ttf
p500
sg20
g21
sbag1
(g8
g3
NtRp501
(dp502
g11
g28
sg13
S'GFS Didot'
p503
sg15
I400
sg16
g12
sg17
g12
sg18
V/usr/share/fonts/truetype/didot/GFSDidotItalic.otf
p504
sg20
g21
sbag1
(g8
g3
NtRp505
(dp506
g11
g12
sg13
S'Gillius ADF No2 Cd'
p507
sg15
I400
sg16
g12
sg17
g12
sg18
V/usr/share/fonts/truetype/adf/GilliusADFNo2Cd-Regular.otf
p508
sg20
g21
sbag1
(g8
g3
NtRp509
(dp510
g11
g12
sg13
S'TlwgMono'
p511
sg15
I400
sg16
g12
sg17
g12
sg18
V/usr/share/fonts/truetype/tlwg/TlwgMono.ttf
p512
sg20
g21
sbag1
(g8
g3
NtRp513
(dp514
g11
g12
sg13
S'Amiri'
p515
sg15
I700
sg16
g12
sg17
g12
sg18
V/usr/share/fonts/opentype/fonts-hosny-amiri/amiri-bold.ttf
p516
sg20
g21
sbag1
(g8
g3
NtRp517
(dp518
g11
g28
sg13
S'Lato'
p519
sg15
I400
sg16
g12
sg17
g12
sg18
V/usr/share/fonts/truetype/lato/Lato-HaiIta.ttf
p520
sg20
g21
sbag1
(g8
g3
NtRp521
(dp522
g11
g37
sg13
S'Purisa'
p523
sg15
I400
sg16
g12
sg17
g12
sg18
V/usr/share/fonts/truetype/tlwg/Purisa-Oblique.ttf
p524
sg20
g21
sbag1
(g8
g3
NtRp525
(dp526
g11
g28
sg13
S'Kinnari'
p527
sg15
I400
sg16
g12
sg17
g12
sg18
V/usr/share/fonts/truetype/tlwg/Kinnari-Italic.ttf
p528
sg20
g21
sbag1
(g8
g3
NtRp529
(dp530
g11
g12
sg13
S'STIXSizeOneSym'
p531
sg15
I400
sg16
g12
sg17
g12
sg18
V/usr/share/fonts/opentype/stix/STIXSizeOneSym-Regular.otf
p532
sg20
g21
sbag1
(g8
g3
NtRp533
(dp534
g11
g12
sg13
S'Saab'
p535
sg15
I400
sg16
g12
sg17
g12
sg18
V/usr/share/fonts/truetype/ttf-punjabi-fonts/Saab.ttf
p536
sg20
g21
sbag1
(g8
g3
NtRp537
(dp538
g11
g28
sg13
S'Ubuntu Mono'
p539
sg15
I400
sg16
g12
sg17
g12
sg18
V/usr/share/fonts/truetype/ubuntu-font-family/UbuntuMono-RI.ttf
p540
sg20
g21
sbag1
(g8
g3
NtRp541
(dp542
g11
g12
sg13
S'KacstLetter'
p543
sg15
I400
sg16
g12
sg17
g12
sg18
V/usr/share/fonts/truetype/kacst/KacstLetter.ttf
p544
sg20
g21
sbag1
(g8
g3
NtRp545
(dp546
g11
g12
sg13
S'DejaVu Sans'
p547
sg15
I700
sg16
g239
sg17
g12
sg18
V/usr/share/fonts/truetype/dejavu/DejaVuSansCondensed-Bold.ttf
p548
sg20
g21
sbag1
(g8
g3
NtRp549
(dp550
g11
g28
sg13
S'GFS Neohellenic'
p551
sg15
I700
sg16
g12
sg17
g12
sg18
V/usr/share/fonts/truetype/neohellenic/GFSNeohellenicBoldIt.otf
p552
sg20
g21
sbag1
(g8
g3
NtRp553
(dp554
g11
g28
sg13
S'Gillius ADF'
p555
sg15
I400
sg16
g12
sg17
g12
sg18
V/usr/share/fonts/truetype/adf/GilliusADF-Italic.otf
p556
sg20
g21
sbag1
(g8
g3
NtRp557
(dp558
g11
g37
sg13
S'TlwgTypewriter'
p559
sg15
I400
sg16
g12
sg17
g12
sg18
V/usr/share/fonts/truetype/tlwg/TlwgTypewriter-Oblique.ttf
p560
sg20
g21
sbag1
(g8
g3
NtRp561
(dp562
g11
g12
sg13
S'msam10'
p563
sg15
I400
sg16
g12
sg17
g12
sg18
V/usr/share/fonts/truetype/lyx/msam10.ttf
p564
sg20
g21
sbag1
(g8
g3
NtRp565
(dp566
g11
g12
sg13
S'Ubuntu'
p567
sg15
I500
sg16
g12
sg17
g12
sg18
V/usr/share/fonts/truetype/ubuntu-font-family/Ubuntu-M.ttf
p568
sg20
g21
sbag1
(g8
g3
NtRp569
(dp570
g11
g12
sg13
S'Amiri'
p571
sg15
I400
sg16
g12
sg17
g12
sg18
V/usr/share/fonts/opentype/fonts-hosny-amiri/amiri-regular.ttf
p572
sg20
g21
sbag1
(g8
g3
NtRp573
(dp574
g11
g12
sg13
S'Garuda'
p575
sg15
I700
sg16
g12
sg17
g12
sg18
V/usr/share/fonts/truetype/tlwg/Garuda-Bold.ttf
p576
sg20
g21
sbag1
(g8
g3
NtRp577
(dp578
g11
g37
sg13
S'Tlwg Typist'
p579
sg15
I700
sg16
g12
sg17
g12
sg18
V/usr/share/fonts/truetype/tlwg/TlwgTypist-BoldOblique.ttf
p580
sg20
g21
sbag1
(g8
g3
NtRp581
(dp582
g11
g37
sg13
S'FreeSans'
p583
sg15
I400
sg16
g12
sg17
g12
sg18
V/usr/share/fonts/opentype/freefont/FreeSansOblique.otf
p584
sg20
g21
sbag1
(g8
g3
NtRp585
(dp586
g11
g28
sg13
S'Cabin'
p587
sg15
I500
sg16
g12
sg17
g12
sg18
V/usr/share/fonts/opentype/cabin/Cabin-MediumItalic.otf
p588
sg20
g21
sbag1
(g8
g3
NtRp589
(dp590
g11
g28
sg13
S'Ubuntu'
p591
sg15
I700
sg16
g12
sg17
g12
sg18
V/usr/share/fonts/truetype/ubuntu-font-family/Ubuntu-BI.ttf
p592
sg20
g21
sbag1
(g8
g3
NtRp593
(dp594
g11
g28
sg13
S'Linux Libertine O'
p595
sg15
I700
sg16
g12
sg17
g12
sg18
V/usr/share/fonts/opentype/linux-libertine/LinLibertine_RZI.otf
p596
sg20
g21
sbag1
(g8
g3
NtRp597
(dp598
g11
g12
sg13
S'Liberation Sans Narrow'
p599
sg15
I700
sg16
g239
sg17
g12
sg18
V/usr/share/fonts/truetype/liberation/LiberationSansNarrow-Bold.ttf
p600
sg20
g21
sbag1
(g8
g3
NtRp601
(dp602
g11
g12
sg13
S'Droid Sans Armenian'
p603
sg15
I400
sg16
g12
sg17
g12
sg18
V/usr/share/fonts/truetype/droid/DroidSansArmenian.ttf
p604
sg20
g21
sbag1
(g8
g3
NtRp605
(dp606
g11
g12
sg13
S'Linux Libertine O'
p607
sg15
I400
sg16
g12
sg17
g12
sg18
V/usr/share/fonts/opentype/linux-libertine/LinLibertine_R.otf
p608
sg20
g21
sbag1
(g8
g3
NtRp609
(dp610
g11
g12
sg13
S'DejaVu Sans Mono'
p611
sg15
I700
sg16
g12
sg17
g12
sg18
V/usr/share/fonts/truetype/dejavu/DejaVuSansMono-Bold.ttf
p612
sg20
g21
sbag1
(g8
g3
NtRp613
(dp614
g11
g37
sg13
S'DejaVu Sans'
p615
sg15
I400
sg16
g239
sg17
g12
sg18
V/usr/share/fonts/truetype/dejavu/DejaVuSansCondensed-Oblique.ttf
p616
sg20
g21
sbag1
(g8
g3
NtRp617
(dp618
g11
g12
sg13
S'NanumBarunGothic'
p619
sg15
I700
sg16
g12
sg17
g12
sg18
V/usr/share/fonts/truetype/nanum/NanumBarunGothicBold.ttf
p620
sg20
g21
sbag1
(g8
g3
NtRp621
(dp622
g11
g28
sg13
S'Junicode'
p623
sg15
I700
sg16
g12
sg17
g12
sg18
V/usr/share/fonts/truetype/junicode/Junicode-BoldItalic.ttf
p624
sg20
g21
sbag1
(g8
g3
NtRp625
(dp626
g11
g12
sg13
S'MathJax_Size4'
p627
sg15
I400
sg16
g12
sg17
g12
sg18
V/usr/share/fonts/opentype/mathjax/MathJax_Size4-Regular.otf
p628
sg20
g21
sbag1
(g8
g3
NtRp629
(dp630
g11
g12
sg13
S'TlwgMono'
p631
sg15
I700
sg16
g12
sg17
g12
sg18
V/usr/share/fonts/truetype/tlwg/TlwgMono-Bold.ttf
p632
sg20
g21
sbag1
(g8
g3
NtRp633
(dp634
g11
g28
sg13
S'Liberation Mono'
p635
sg15
I400
sg16
g12
sg17
g12
sg18
V/usr/share/fonts/truetype/liberation/LiberationMono-Italic.ttf
p636
sg20
g21
sbag1
(g8
g3
NtRp637
(dp638
g11
g28
sg13
S'Liberation Serif'
p639
sg15
I700
sg16
g12
sg17
g12
sg18
V/usr/share/fonts/truetype/liberation/LiberationSerif-BoldItalic.ttf
p640
sg20
g21
sbag1
(g8
g3
NtRp641
(dp642
g11
g12
sg13
S'Liberation Serif'
p643
sg15
I700
sg16
g12
sg17
g12
sg18
V/usr/share/fonts/truetype/liberation/LiberationSerif-Bold.ttf
p644
sg20
g21
sbag1
(g8
g3
NtRp645
(dp646
g11
g28
sg13
S'STIXGeneral'
p647
sg15
I700
sg16
g12
sg17
g12
sg18
V/usr/share/fonts/opentype/stix/STIXGeneral-BoldItalic.otf
p648
sg20
g21
sbag1
(g8
g3
NtRp649
(dp650
g11
g12
sg13
S'Waree'
p651
sg15
I700
sg16
g12
sg17
g12
sg18
V/usr/share/fonts/truetype/tlwg/Waree-Bold.ttf
p652
sg20
g21
sbag1
(g8
g3
NtRp653
(dp654
g11
g12
sg13
S'Comfortaa'
p655
sg15
I400
sg16
g12
sg17
g12
sg18
V/usr/share/fonts/truetype/comfortaa/Comfortaa-Regular.ttf
p656
sg20
g21
sbag1
(g8
g3
NtRp657
(dp658
g11
g12
sg13
S'DejaVu Serif'
p659
sg15
I400
sg16
g239
sg17
g12
sg18
V/usr/share/fonts/truetype/dejavu/DejaVuSerifCondensed.ttf
p660
sg20
g21
sbag1
(g8
g3
NtRp661
(dp662
g11
g12
sg13
S'ori1Uni'
p663
sg15
I500
sg16
g12
sg17
g12
sg18
V/usr/share/fonts/truetype/ttf-indic-fonts-core/utkal.ttf
p664
sg20
g21
sbag1
(g8
g3
NtRp665
(dp666
g11
g12
sg13
S'Linux Biolinum O'
p667
sg15
I700
sg16
g12
sg17
g12
sg18
V/usr/share/fonts/opentype/linux-libertine/LinBiolinum_RB.otf
p668
sg20
g21
sbag1
(g8
g3
NtRp669
(dp670
g11
g12
sg13
S'Mukti Narrow'
p671
sg15
I400
sg16
g12
sg17
g12
sg18
V/usr/share/fonts/truetype/ttf-indic-fonts-core/MuktiNarrow.ttf
p672
sg20
g21
sbag1
(g8
g3
NtRp673
(dp674
g11
g37
sg13
S'FreeMono'
p675
sg15
I700
sg16
g12
sg17
g12
sg18
V/usr/share/fonts/opentype/freefont/FreeMonoBoldOblique.otf
p676
sg20
g21
sbag1
(g8
g3
NtRp677
(dp678
g11
g12
sg13
S'Norasi'
p679
sg15
I700
sg16
g12
sg17
g12
sg18
V/usr/share/fonts/truetype/tlwg/Norasi-Bold.ttf
p680
sg20
g21
sbag1
(g8
g3
NtRp681
(dp682
g11
g37
sg13
S'Kinnari'
p683
sg15
I700
sg16
g12
sg17
g12
sg18
V/usr/share/fonts/truetype/tlwg/Kinnari-BoldOblique.ttf
p684
sg20
g21
sbag1
(g8
g3
NtRp685
(dp686
g11
g12
sg13
S'Mallige'
p687
sg15
I400
sg16
g12
sg17
g12
sg18
V/usr/share/fonts/truetype/ttf-indic-fonts-core/Malige-n.ttf
p688
sg20
g21
sbag1
(g8
g3
NtRp689
(dp690
g11
g12
sg13
S'KacstOne'
p691
sg15
I400
sg16
g12
sg17
g12
sg18
V/usr/share/fonts/truetype/kacst-one/KacstOne.ttf
p692
sg20
g21
sbag1
(g8
g3
NtRp693
(dp694
g11
g28
sg13
S'Lobster Two'
p695
sg15
I400
sg16
g12
sg17
g12
sg18
V/usr/share/fonts/opentype/lobstertwo/LobsterTwo-Italic.otf
p696
sg20
g21
sbag1
(g8
g3
NtRp697
(dp698
g11
g12
sg13
S'Lato'
p699
sg15
I400
sg16
g12
sg17
g12
sg18
V/usr/share/fonts/truetype/lato/Lato-Hai.ttf
p700
sg20
g21
sbag1
(g8
g3
NtRp701
(dp702
g11
g12
sg13
S'Lohit Bengali'
p703
sg15
I400
sg16
g12
sg17
g12
sg18
V/usr/share/fonts/truetype/ttf-indic-fonts-core/lohit_bn.ttf
p704
sg20
g21
sbag1
(g8
g3
NtRp705
(dp706
g11
g12
sg13
S'Gillius ADF'
p707
sg15
I700
sg16
g12
sg17
g12
sg18
V/usr/share/fonts/truetype/adf/GilliusADF-Bold.otf
p708
sg20
g21
sbag1
(g8
g3
NtRp709
(dp710
g11
g28
sg13
S'Gillius ADF No2 Cd'
p711
sg15
I400
sg16
g12
sg17
g12
sg18
V/usr/share/fonts/truetype/adf/GilliusADFNo2Cd-Italic.otf
p712
sg20
g21
sbag1
(g8
g3
NtRp713
(dp714
g11
g12
sg13
S'FreeMono'
p715
sg15
I700
sg16
g12
sg17
g12
sg18
V/usr/share/fonts/truetype/freefont/FreeMonoBold.ttf
p716
sg20
g21
sbag1
(g8
g3
NtRp717
(dp718
g11
g12
sg13
S'Accanthis ADF Std'
p719
sg15
I400
sg16
g12
sg17
g12
sg18
V/usr/share/fonts/truetype/adf/AccanthisADFStd-Regular.otf
p720
sg20
g21
sbag1
(g8
g3
NtRp721
(dp722
g11
g28
sg13
S'Lato'
p723
sg15
I700
sg16
g12
sg17
g12
sg18
V/usr/share/fonts/truetype/lato/Lato-BolIta.ttf
p724
sg20
g21
sbag1
(g8
g3
NtRp725
(dp726
g11
g12
sg13
S'KacstBook'
p727
sg15
I400
sg16
g12
sg17
g12
sg18
V/usr/share/fonts/truetype/kacst/KacstBook.ttf
p728
sg20
g21
sbag1
(g8
g3
NtRp729
(dp730
g11
g28
sg13
S'Droid Serif'
p731
sg15
I700
sg16
g12
sg17
g12
sg18
V/usr/share/fonts/truetype/droid/DroidSerif-BoldItalic.ttf
p732
sg20
g21
sbag1
(g8
g3
NtRp733
(dp734
g11
g12
sg13
S'wasy10'
p735
sg15
I400
sg16
g12
sg17
g12
sg18
V/usr/share/fonts/truetype/lyx/wasy10.ttf
p736
sg20
g21
sbag1
(g8
g3
NtRp737
(dp738
g11
g12
sg13
S'GFS Porson'
p739
sg15
I400
sg16
g12
sg17
g12
sg18
V/usr/share/fonts/truetype/porson/GFSPorson.otf
p740
sg20
g21
sbag1
(g8
g3
NtRp741
(dp742
g11
g28
sg13
S'Lato'
p743
sg15
I400
sg16
g12
sg17
g12
sg18
V/usr/share/fonts/truetype/lato/Lato-RegIta.ttf
p744
sg20
g21
sbag1
(g8
g3
NtRp745
(dp746
g11
g12
sg13
S'GFS Neohellenic'
p747
sg15
I700
sg16
g12
sg17
g12
sg18
V/usr/share/fonts/truetype/neohellenic/GFSNeohellenicBold.otf
p748
sg20
g21
sbag1
(g8
g3
NtRp749
(dp750
g11
g12
sg13
S'Pothana2000'
p751
sg15
I400
sg16
g12
sg17
g12
sg18
V/usr/share/fonts/truetype/ttf-indic-fonts-core/Pothana2000.ttf
p752
sg20
g21
sbag1
(g8
g3
NtRp753
(dp754
g11
g12
sg13
S'DejaVu Sans'
p755
sg15
I400
sg16
g239
sg17
g12
sg18
V/usr/share/fonts/truetype/dejavu/DejaVuSansCondensed.ttf
p756
sg20
g21
sbag1
(g8
g3
NtRp757
(dp758
g11
g28
sg13
S'STIXNonUnicode'
p759
sg15
I400
sg16
g12
sg17
g12
sg18
V/usr/share/fonts/opentype/stix/STIXNonUnicode-Italic.otf
p760
sg20
g21
sbag1
(g8
g3
NtRp761
(dp762
g11
g12
sg13
S'Comfortaa'
p763
sg15
I700
sg16
g12
sg17
g12
sg18
V/usr/share/fonts/truetype/comfortaa/Comfortaa-Bold.ttf
p764
sg20
g21
sbag1
(g8
g3
NtRp765
(dp766
g11
g37
sg13
S'DejaVu Sans'
p767
sg15
I700
sg16
g239
sg17
g12
sg18
V/usr/share/fonts/truetype/dejavu/DejaVuSansCondensed-BoldOblique.ttf
p768
sg20
g21
sbag1
(g8
g3
NtRp769
(dp770
g11
g28
sg13
S'GentiumAlt'
p771
sg15
I400
sg16
g12
sg17
g12
sg18
V/usr/share/fonts/truetype/gentium/GenAI102.ttf
p772
sg20
g21
sbag1
(g8
g3
NtRp773
(dp774
g11
g12
sg13
S'Ubuntu'
p775
sg15
I700
sg16
g12
sg17
g12
sg18
V/usr/share/fonts/truetype/ubuntu-font-family/Ubuntu-B.ttf
p776
sg20
g21
sbag1
(g8
g3
NtRp777
(dp778
g11
g37
sg13
S'FreeSans'
p779
sg15
I700
sg16
g12
sg17
g12
sg18
V/usr/share/fonts/truetype/freefont/FreeSansBoldOblique.ttf
p780
sg20
g21
sbag1
(g8
g3
NtRp781
(dp782
g11
g12
sg13
S'STIXNonUnicode'
p783
sg15
I400
sg16
g12
sg17
g12
sg18
V/usr/share/fonts/opentype/stix/STIXNonUnicode-Regular.otf
p784
sg20
g21
sbag1
(g8
g3
NtRp785
(dp786
g11
g37
sg13
S'Garuda'
p787
sg15
I700
sg16
g12
sg17
g12
sg18
V/usr/share/fonts/truetype/tlwg/Garuda-BoldOblique.ttf
p788
sg20
g21
sbag1
(g8
g3
NtRp789
(dp790
g11
g12
sg13
S'Padauk Book'
p791
sg15
I700
sg16
g12
sg17
g12
sg18
V/usr/share/fonts/truetype/padauk/Padauk-bookbold.ttf
p792
sg20
g21
sbag1
(g8
g3
NtRp793
(dp794
g11
g12
sg13
S'Cabin'
p795
sg15
I400
sg16
g12
sg17
g12
sg18
V/usr/share/fonts/opentype/cabin/Cabin-Regular.otf
p796
sg20
g21
sbag1
(g8
g3
NtRp797
(dp798
g11
g12
sg13
S'FreeSans'
p799
sg15
I400
sg16
g12
sg17
g12
sg18
V/usr/share/fonts/truetype/freefont/FreeSans.ttf
p800
sg20
g21
sbag1
(g8
g3
NtRp801
(dp802
g11
g12
sg13
S'DejaVu Serif'
p803
sg15
I700
sg16
g12
sg17
g12
sg18
V/usr/share/fonts/truetype/dejavu/DejaVuSerif-Bold.ttf
p804
sg20
g21
sbag1
(g8
g3
NtRp805
(dp806
g11
g37
sg13
S'Kinnari'
p807
sg15
I400
sg16
g12
sg17
g12
sg18
V/usr/share/fonts/truetype/tlwg/Kinnari-Oblique.ttf
p808
sg20
g21
sbag1
(g8
g3
NtRp809
(dp810
g11
g12
sg13
S'Umpush'
p811
sg15
I200
sg16
g12
sg17
g12
sg18
V/usr/share/fonts/truetype/tlwg/Umpush-Light.ttf
p812
sg20
g21
sbag1
(g8
g3
NtRp813
(dp814
g11
g28
sg13
S'Accanthis ADF Std No2'
p815
sg15
I700
sg16
g12
sg17
g12
sg18
V/usr/share/fonts/truetype/adf/AccanthisADFStdNo2-BoldItalic.otf
p816
sg20
g21
sbag1
(g8
g3
NtRp817
(dp818
g11
g12
sg13
S'Droid Sans Ethiopic'
p819
sg15
I400
sg16
g12
sg17
g12
sg18
V/usr/share/fonts/truetype/droid/DroidSansEthiopic-Regular.ttf
p820
sg20
g21
sbag1
(g8
g3
NtRp821
(dp822
g11
g37
sg13
S'Purisa'
p823
sg15
I700
sg16
g12
sg17
g12
sg18
V/usr/share/fonts/truetype/tlwg/Purisa-BoldOblique.ttf
p824
sg20
g21
sbag1
(g8
g3
NtRp825
(dp826
g11
g28
sg13
S'GFS Didot'
p827
sg15
I700
sg16
g12
sg17
g12
sg18
V/usr/share/fonts/truetype/artemisia/GFSArtemisiaBoldIt.otf
p828
sg20
g21
sbag1
(g8
g3
NtRp829
(dp830
g11
g28
sg13
S'Gentium Basic'
p831
sg15
I700
sg16
g12
sg17
g12
sg18
V/usr/share/fonts/truetype/gentium-basic/GenBasBI.ttf
p832
sg20
g21
sbag1
(g8
g3
NtRp833
(dp834
g11
g12
sg13
S'DejaVu Sans'
p835
sg15
I400
sg16
g12
sg17
g12
sg18
V/usr/share/fonts/truetype/dejavu/DejaVuSans.ttf
p836
sg20
g21
sbag1
(g8
g3
NtRp837
(dp838
g11
g12
sg13
S'Linux Biolinum Keyboard O'
p839
sg15
I400
sg16
g12
sg17
g12
sg18
V/usr/share/fonts/opentype/linux-libertine/LinBiolinum_K.otf
p840
sg20
g21
sbag1
(g8
g3
NtRp841
(dp842
g11
g12
sg13
S'IPAMincho'
p843
sg15
I400
sg16
g12
sg17
g12
sg18
V/usr/share/fonts/opentype/ipafont-mincho/ipam.ttf
p844
sg20
g21
sbag1
(g8
g3
NtRp845
(dp846
g11
g37
sg13
S'FreeMono'
p847
sg15
I400
sg16
g12
sg17
g12
sg18
V/usr/share/fonts/truetype/freefont/FreeMonoOblique.ttf
p848
sg20
g21
sbag1
(g8
g3
NtRp849
(dp850
g11
g12
sg13
S'MathJax_Size1'
p851
sg15
I400
sg16
g12
sg17
g12
sg18
V/usr/share/fonts/opentype/mathjax/MathJax_Size1-Regular.otf
p852
sg20
g21
sbag1
(g8
g3
NtRp853
(dp854
g11
g28
sg13
S'STIXNonUnicode'
p855
sg15
I700
sg16
g12
sg17
g12
sg18
V/usr/share/fonts/opentype/stix/STIXNonUnicode-BoldItalic.otf
p856
sg20
g21
sbag1
(g8
g3
NtRp857
(dp858
g11
g12
sg13
S'Gillius ADF'
p859
sg15
I400
sg16
g12
sg17
g12
sg18
V/usr/share/fonts/truetype/adf/GilliusADF-Regular.otf
p860
sg20
g21
sbag1
(g8
g3
NtRp861
(dp862
g11
g12
sg13
S'Liberation Sans Narrow'
p863
sg15
I400
sg16
g239
sg17
g12
sg18
V/usr/share/fonts/truetype/liberation/LiberationSansNarrow-Regular.ttf
p864
sg20
g21
sbag1
(g8
g3
NtRp865
(dp866
g11
g12
sg13
S'STIXVariants'
p867
sg15
I700
sg16
g12
sg17
g12
sg18
V/usr/share/fonts/opentype/stix/STIXVariants-Bold.otf
p868
sg20
g21
sbag1
(g8
g3
NtRp869
(dp870
g11
g12
sg13
S'STIXIntegralsD'
p871
sg15
I400
sg16
g12
sg17
g12
sg18
V/usr/share/fonts/opentype/stix/STIXIntegralsD-Regular.otf
p872
sg20
g21
sbag1
(g8
g3
NtRp873
(dp874
g11
g37
sg13
S'Sawasdee'
p875
sg15
I400
sg16
g12
sg17
g12
sg18
V/usr/share/fonts/truetype/tlwg/Sawasdee-Oblique.ttf
p876
sg20
g21
sbag1
(g8
g3
NtRp877
(dp878
g11
g12
sg13
S'STIXIntegralsD'
p879
sg15
I700
sg16
g12
sg17
g12
sg18
V/usr/share/fonts/opentype/stix/STIXIntegralsD-Bold.otf
p880
sg20
g21
sbag1
(g8
g3
NtRp881
(dp882
g11
g12
sg13
S'Khmer OS'
p883
sg15
I400
sg16
g12
sg17
g12
sg18
V/usr/share/fonts/truetype/ttf-khmeros-core/KhmerOS.ttf
p884
sg20
g21
sbag1
(g8
g3
NtRp885
(dp886
g11
g12
sg13
S'Padauk'
p887
sg15
I400
sg16
g12
sg17
g12
sg18
V/usr/share/fonts/truetype/padauk/Padauk.ttf
p888
sg20
g21
sbag1
(g8
g3
NtRp889
(dp890
g11
g12
sg13
S'KacstDecorative'
p891
sg15
I400
sg16
g12
sg17
g12
sg18
V/usr/share/fonts/truetype/kacst/KacstDecorative.ttf
p892
sg20
g21
sbag1
(g8
g3
NtRp893
(dp894
g11
g28
sg13
S'MathJax_Math'
p895
sg15
I400
sg16
g12
sg17
g12
sg18
V/usr/share/fonts/opentype/mathjax/MathJax_Math-Italic.otf
p896
sg20
g21
sbag1
(g8
g3
NtRp897
(dp898
g11
g12
sg13
S'Gillius ADF No2'
p899
sg15
I700
sg16
g12
sg17
g12
sg18
V/usr/share/fonts/truetype/adf/GilliusADFNo2-Bold.otf
p900
sg20
g21
sbag1
(g8
g3
NtRp901
(dp902
g11
g28
sg13
S'Gillius ADF Cd'
p903
sg15
I400
sg16
g12
sg17
g12
sg18
V/usr/share/fonts/truetype/adf/GilliusADFCd-Italic.otf
p904
sg20
g21
sbag1
(g8
g3
NtRp905
(dp906
g11
g12
sg13
S'Waree'
p907
sg15
I400
sg16
g12
sg17
g12
sg18
V/usr/share/fonts/truetype/tlwg/Waree.ttf
p908
sg20
g21
sbag1
(g8
g3
NtRp909
(dp910
g11
g12
sg13
S'FreeMono'
p911
sg15
I400
sg16
g12
sg17
g12
sg18
V/usr/share/fonts/truetype/freefont/FreeMono.ttf
p912
sg20
g21
sbag1
(g8
g3
NtRp913
(dp914
g11
g12
sg13
S'Lato'
p915
sg15
I400
sg16
g12
sg17
g12
sg18
V/usr/share/fonts/truetype/lato/Lato-Reg.ttf
p916
sg20
g21
sbag1
(g8
g3
NtRp917
(dp918
g11
g28
sg13
S'Gillius ADF No2 Cd'
p919
sg15
I700
sg16
g12
sg17
g12
sg18
V/usr/share/fonts/truetype/adf/GilliusADFNo2Cd-BoldItalic.otf
p920
sg20
g21
sbag1
(g8
g3
NtRp921
(dp922
g11
g12
sg13
S'STIXIntegralsUpSm'
p923
sg15
I700
sg16
g12
sg17
g12
sg18
V/usr/share/fonts/opentype/stix/STIXIntegralsUpSm-Bold.otf
p924
sg20
g21
sbag1
(g8
g3
NtRp925
(dp926
g11
g12
sg13
S'Linux Libertine Initials O'
p927
sg15
I400
sg16
g12
sg17
g12
sg18
V/usr/share/fonts/opentype/linux-libertine/LinLibertine_I.otf
p928
sg20
g21
sbag1
(g8
g3
NtRp929
(dp930
g11
g28
sg13
S'Gillius ADF No2'
p931
sg15
I700
sg16
g12
sg17
g12
sg18
V/usr/share/fonts/truetype/adf/GilliusADFNo2-BoldItalic.otf
p932
sg20
g21
sbag1
(g8
g3
NtRp933
(dp934
g11
g12
sg13
S'Umpush'
p935
sg15
I400
sg16
g12
sg17
g12
sg18
V/usr/share/fonts/truetype/tlwg/Umpush.ttf
p936
sg20
g21
sbag1
(g8
g3
NtRp937
(dp938
g11
g28
sg13
S'Gillius ADF No2'
p939
sg15
I400
sg16
g12
sg17
g12
sg18
V/usr/share/fonts/truetype/adf/GilliusADFNo2-Italic.otf
p940
sg20
g21
sbag1
(g8
g3
NtRp941
(dp942
g11
g12
sg13
S'Accanthis ADF Std No3'
p943
sg15
I400
sg16
g12
sg17
g12
sg18
V/usr/share/fonts/truetype/adf/AccanthisADFStdNo3-Regular.otf
p944
sg20
g21
sbag1
(g8
g3
NtRp945
(dp946
g11
g12
sg13
S'Lohit Punjabi'
p947
sg15
I400
sg16
g12
sg17
g12
sg18
V/usr/share/fonts/truetype/ttf-punjabi-fonts/lohit_pa.ttf
p948
sg20
g21
sbag1
(g8
g3
NtRp949
(dp950
g11
g28
sg13
S'Accanthis ADF Std'
p951
sg15
I400
sg16
g12
sg17
g12
sg18
V/usr/share/fonts/truetype/adf/AccanthisADFStd-Italic.otf
p952
sg20
g21
sbag1
(g8
g3
NtRp953
(dp954
g11
g12
sg13
S'Liberation Mono'
p955
sg15
I700
sg16
g12
sg17
g12
sg18
V/usr/share/fonts/truetype/liberation/LiberationMono-Bold.ttf
p956
sg20
g21
sbag1
(g8
g3
NtRp957
(dp958
g11
g12
sg13
S'FreeSerif'
p959
sg15
I700
sg16
g12
sg17
g12
sg18
V/usr/share/fonts/truetype/freefont/FreeSerifBold.ttf
p960
sg20
g21
sbag1
(g8
g3
NtRp961
(dp962
g11
g12
sg13
S'Droid Arabic Naskh'
p963
sg15
I700
sg16
g12
sg17
g12
sg18
V/usr/share/fonts/truetype/droid/DroidNaskh-Bold.ttf
p964
sg20
g21
sbag1
(g8
g3
NtRp965
(dp966
g11
g12
sg13
S'GFS Solomos'
p967
sg15
I400
sg16
g12
sg17
g12
sg18
V/usr/share/fonts/truetype/solomos/GFSSolomos.otf
p968
sg20
g21
sbag1
(g8
g3
NtRp969
(dp970
g11
g12
sg13
S'LKLUG'
p971
sg15
I400
sg16
g12
sg17
g12
sg18
V/usr/share/fonts/truetype/sinhala/lklug.ttf
p972
sg20
g21
sbag1
(g8
g3
NtRp973
(dp974
g11
g12
sg13
S'Lohit Devanagari'
p975
sg15
I400
sg16
g12
sg17
g12
sg18
V/usr/share/fonts/truetype/ttf-indic-fonts-core/lohit_hi.ttf
p976
sg20
g21
sbag1
(g8
g3
NtRp977
(dp978
g11
g28
sg13
S'Lato'
p979
sg15
I200
sg16
g12
sg17
g12
sg18
V/usr/share/fonts/truetype/lato/Lato-LigIta.ttf
p980
sg20
g21
sbag1
(g8
g3
NtRp981
(dp982
g11
g12
sg13
S'FontAwesome'
p983
sg15
I400
sg16
g12
sg17
g12
sg18
V/usr/share/fonts/opentype/font-awesome/FontAwesome.otf
p984
sg20
g21
sbag1
(g8
g3
NtRp985
(dp986
g11
g12
sg13
S'Ubuntu'
p987
sg15
I400
sg16
g12
sg17
g12
sg18
V/usr/share/fonts/truetype/ubuntu-font-family/Ubuntu-R.ttf
p988
sg20
g21
sbag1
(g8
g3
NtRp989
(dp990
g11
g37
sg13
S'DejaVu Sans'
p991
sg15
I700
sg16
g12
sg17
g12
sg18
V/usr/share/fonts/truetype/dejavu/DejaVuSans-BoldOblique.ttf
p992
sg20
g21
sbag1
(g8
g3
NtRp993
(dp994
g11
g37
sg13
S'TlwgMono'
p995
sg15
I400
sg16
g12
sg17
g12
sg18
V/usr/share/fonts/truetype/tlwg/TlwgMono-Oblique.ttf
p996
sg20
g21
sbag1
(g8
g3
NtRp997
(dp998
g11
g12
sg13
S'MathJax_Main'
p999
sg15
I400
sg16
g12
sg17
g12
sg18
V/usr/share/fonts/opentype/mathjax/MathJax_Main-Regular.otf
p1000
sg20
g21
sbag1
(g8
g3
NtRp1001
(dp1002
g11
g12
sg13
S'Droid Serif'
p1003
sg15
I400
sg16
g12
sg17
g12
sg18
V/usr/share/fonts/truetype/droid/DroidSerif-Regular.ttf
p1004
sg20
g21
sbag1
(g8
g3
NtRp1005
(dp1006
g11
g12
sg13
S'msbm10'
p1007
sg15
I400
sg16
g12
sg17
g12
sg18
V/usr/share/fonts/truetype/lyx/msbm10.ttf
p1008
sg20
g21
sbag1
(g8
g3
NtRp1009
(dp1010
g11
g28
sg13
S'DejaVu Serif'
p1011
sg15
I400
sg16
g12
sg17
g12
sg18
V/usr/share/fonts/truetype/dejavu/DejaVuSerif-Italic.ttf
p1012
sg20
g21
sbag1
(g8
g3
NtRp1013
(dp1014
g11
g28
sg13
S'DejaVu Serif'
p1015
sg15
I700
sg16
g239
sg17
g12
sg18
V/usr/share/fonts/truetype/dejavu/DejaVuSerifCondensed-BoldItalic.ttf
p1016
sg20
g21
sbag1
(g8
g3
NtRp1017
(dp1018
g11
g12
sg13
S'NanumMyeongjo'
p1019
sg15
I700
sg16
g12
sg17
g12
sg18
V/usr/share/fonts/truetype/nanum/NanumMyeongjoBold.ttf
p1020
sg20
g21
sbag1
(g8
g3
NtRp1021
(dp1022
g11
g12
sg13
S'Phetsarath OT'
p1023
sg15
I400
sg16
g12
sg17
g12
sg18
V/usr/share/fonts/truetype/lao/Phetsarath_OT.ttf
p1024
sg20
g21
sbag1
(g8
g3
NtRp1025
(dp1026
g11
g12
sg13
S'STIXSizeTwoSym'
p1027
sg15
I400
sg16
g12
sg17
g12
sg18
V/usr/share/fonts/opentype/stix/STIXSizeTwoSym-Regular.otf
p1028
sg20
g21
sbag1
(g8
g3
NtRp1029
(dp1030
g11
g12
sg13
S'TakaoPGothic'
p1031
sg15
I400
sg16
g12
sg17
g12
sg18
V/usr/share/fonts/truetype/takao-gothic/TakaoPGothic.ttf
p1032
sg20
g21
sbag1
(g8
g3
NtRp1033
(dp1034
g11
g12
sg13
S'Droid Sans'
p1035
sg15
I400
sg16
g12
sg17
g12
sg18
V/usr/share/fonts/truetype/droid/DroidSans.ttf
p1036
sg20
g21
sbag1
(g8
g3
NtRp1037
(dp1038
g11
g28
sg13
S'GFS Neohellenic'
p1039
sg15
I400
sg16
g12
sg17
g12
sg18
V/usr/share/fonts/truetype/neohellenic/GFSNeohellenicIt.otf
p1040
sg20
g21
sbag1
(g8
g3
NtRp1041
(dp1042
g11
g12
sg13
S'STIXSizeFiveSym'
p1043
sg15
I400
sg16
g12
sg17
g12
sg18
V/usr/share/fonts/opentype/stix/STIXSizeFiveSym-Regular.otf
p1044
sg20
g21
sbag1
(g8
g3
NtRp1045
(dp1046
g11
g12
sg13
S'Kedage'
p1047
sg15
I700
sg16
g12
sg17
g12
sg18
V/usr/share/fonts/truetype/ttf-indic-fonts-core/Kedage-b.ttf
p1048
sg20
g21
sbag1
(g8
g3
NtRp1049
(dp1050
g11
g12
sg13
S'MathJax_AMS'
p1051
sg15
I400
sg16
g12
sg17
g12
sg18
V/usr/share/fonts/opentype/mathjax/MathJax_AMS-Regular.otf
p1052
sg20
g21
sbag1
(g8
g3
NtRp1053
(dp1054
g11
g28
sg13
S'Norasi'
p1055
sg15
I700
sg16
g12
sg17
g12
sg18
V/usr/share/fonts/truetype/tlwg/Norasi-BoldItalic.ttf
p1056
sg20
g21
sbag1
(g8
g3
NtRp1057
(dp1058
g11
g12
sg13
S'Umpush'
p1059
sg15
I700
sg16
g12
sg17
g12
sg18
V/usr/share/fonts/truetype/tlwg/Umpush-Bold.ttf
p1060
sg20
g21
sbag1
(g8
g3
NtRp1061
(dp1062
g11
g28
sg13
S'Liberation Sans'
p1063
sg15
I700
sg16
g12
sg17
g12
sg18
V/usr/share/fonts/truetype/liberation/LiberationSans-BoldItalic.ttf
p1064
sg20
g21
sbag1
(g8
g3
NtRp1065
(dp1066
g11
g12
sg13
S'Lato'
p1067
sg15
I900
sg16
g12
sg17
g12
sg18
V/usr/share/fonts/truetype/lato/Lato-Bla.ttf
p1068
sg20
g21
sbag1
(g8
g3
NtRp1069
(dp1070
g11
g37
sg13
S'Norasi'
p1071
sg15
I700
sg16
g12
sg17
g12
sg18
V/usr/share/fonts/truetype/tlwg/Norasi-BoldOblique.ttf
p1072
sg20
g21
sbag1
(g8
g3
NtRp1073
(dp1074
g11
g12
sg13
S'MathJax_Script'
p1075
sg15
I400
sg16
g12
sg17
g12
sg18
V/usr/share/fonts/opentype/mathjax/MathJax_Script-Regular.otf
p1076
sg20
g21
sbag1
(g8
g3
NtRp1077
(dp1078
g11
g12
sg13
S'Lobster Two'
p1079
sg15
I700
sg16
g12
sg17
g12
sg18
V/usr/share/fonts/opentype/lobstertwo/LobsterTwo-Bold.otf
p1080
sg20
g21
sbag1
(g8
g3
NtRp1081
(dp1082
g11
g12
sg13
S'GFS Theokritos'
p1083
sg15
I400
sg16
g12
sg17
g12
sg18
V/usr/share/fonts/truetype/theokritos/GFSTheokritos.otf
p1084
sg20
g21
sbag1
(g8
g3
NtRp1085
(dp1086
g11
g12
sg13
S'MathJax_Caligraphic'
p1087
sg15
I400
sg16
g12
sg17
g12
sg18
V/usr/share/fonts/opentype/mathjax/MathJax_Caligraphic-Regular.otf
p1088
sg20
g21
sbag1
(g8
g3
NtRp1089
(dp1090
g11
g12
sg13
S'Ubuntu'
p1091
sg15
I200
sg16
g12
sg17
g12
sg18
V/usr/share/fonts/truetype/ubuntu-font-family/Ubuntu-L.ttf
p1092
sg20
g21
sbag1
(g8
g3
NtRp1093
(dp1094
g11
g28
sg13
S'Accanthis ADF Std No2'
p1095
sg15
I400
sg16
g12
sg17
g12
sg18
V/usr/share/fonts/truetype/adf/AccanthisADFStdNo2-Italic.otf
p1096
sg20
g21
sbag1
(g8
g3
NtRp1097
(dp1098
g11
g12
sg13
S'DejaVu Sans'
p1099
sg15
I200
sg16
g12
sg17
g12
sg18
V/usr/share/fonts/truetype/dejavu/DejaVuSans-ExtraLight.ttf
p1100
sg20
g21
sbag1
(g8
g3
NtRp1101
(dp1102
g11
g12
sg13
S'KacstFarsi'
p1103
sg15
I400
sg16
g12
sg17
g12
sg18
V/usr/share/fonts/truetype/kacst/KacstFarsi.ttf
p1104
sg20
g21
sbag1
(g8
g3
NtRp1105
(dp1106
g11
g37
sg13
S'Loma'
p1107
sg15
I700
sg16
g12
sg17
g12
sg18
V/usr/share/fonts/truetype/tlwg/Loma-BoldOblique.ttf
p1108
sg20
g21
sbag1
(g8
g3
NtRp1109
(dp1110
g11
g12
sg13
S'TlwgTypewriter'
p1111
sg15
I400
sg16
g12
sg17
g12
sg18
V/usr/share/fonts/truetype/tlwg/TlwgTypewriter.ttf
p1112
sg20
g21
sbag1
(g8
g3
NtRp1113
(dp1114
g11
g12
sg13
S'Accanthis ADF Std No2'
p1115
sg15
I400
sg16
g12
sg17
g12
sg18
V/usr/share/fonts/truetype/adf/AccanthisADFStdNo2-Regular.otf
p1116
sg20
g21
sbag1
(g8
g3
NtRp1117
(dp1118
g11
g12
sg13
S'MathJax_Fraktur'
p1119
sg15
I400
sg16
g12
sg17
g12
sg18
V/usr/share/fonts/opentype/mathjax/MathJax_Fraktur-Regular.otf
p1120
sg20
g21
sbag1
(g8
g3
NtRp1121
(dp1122
g11
g12
sg13
S'gargi'
p1123
sg15
I400
sg16
g12
sg17
g12
sg18
V/usr/share/fonts/truetype/ttf-indic-fonts-core/gargi.ttf
p1124
sg20
g21
sbag1
(g8
g3
NtRp1125
(dp1126
g11
g12
sg13
S'Cabin'
p1127
sg15
I700
sg16
g12
sg17
g12
sg18
V/usr/share/fonts/opentype/cabin/Cabin-SemiBold.otf
p1128
sg20
g21
sbag1
(g8
g3
NtRp1129
(dp1130
g11
g12
sg13
S'IPAPGothic'
p1131
sg15
I400
sg16
g12
sg17
g12
sg18
V/usr/share/fonts/opentype/ipafont-gothic/ipagp.ttf
p1132
sg20
g21
sbag1
(g8
g3
NtRp1133
(dp1134
g11
g28
sg13
S'GFS Artemisia'
p1135
sg15
I400
sg16
g12
sg17
g12
sg18
V/usr/share/fonts/truetype/artemisia/GFSArtemisiaIt.otf
p1136
sg20
g21
sbag1
(g8
g3
NtRp1137
(dp1138
g11
g12
sg13
S'MathJax_Fraktur'
p1139
sg15
I700
sg16
g12
sg17
g12
sg18
V/usr/share/fonts/opentype/mathjax/MathJax_Fraktur-Bold.otf
p1140
sg20
g21
sbag1
(g8
g3
NtRp1141
(dp1142
g11
g12
sg13
S'GFS Didot'
p1143
sg15
I700
sg16
g12
sg17
g12
sg18
V/usr/share/fonts/truetype/didot/GFSDidotBold.otf
p1144
sg20
g21
sbag1
(g8
g3
NtRp1145
(dp1146
g11
g28
sg13
S'Lato'
p1147
sg15
I900
sg16
g12
sg17
g12
sg18
V/usr/share/fonts/truetype/lato/Lato-BlaIta.ttf
p1148
sg20
g21
sbag1
(g8
g3
NtRp1149
(dp1150
g11
g37
sg13
S'FreeMono'
p1151
sg15
I700
sg16
g12
sg17
g12
sg18
V/usr/share/fonts/truetype/freefont/FreeMonoBoldOblique.ttf
p1152
sg20
g21
sbag1
(g8
g3
NtRp1153
(dp1154
g11
g28
sg13
S'Accanthis ADF Std No3'
p1155
sg15
I700
sg16
g12
sg17
g12
sg18
V/usr/share/fonts/truetype/adf/AccanthisADFStdNo3-BoldItalic.otf
p1156
sg20
g21
sbag1
(g8
g3
NtRp1157
(dp1158
g11
g28
sg13
S'Gillius ADF Cd'
p1159
sg15
I700
sg16
g12
sg17
g12
sg18
V/usr/share/fonts/truetype/adf/GilliusADFCd-BoldItalic.otf
p1160
sg20
g21
sbag1
(g8
g3
NtRp1161
(dp1162
g11
g12
sg13
S'MathJax_Size2'
p1163
sg15
I400
sg16
g12
sg17
g12
sg18
V/usr/share/fonts/opentype/mathjax/MathJax_Size2-Regular.otf
p1164
sg20
g21
sbag1
(g8
g3
NtRp1165
(dp1166
g11
g12
sg13
S'MathJax_Size3'
p1167
sg15
I400
sg16
g12
sg17
g12
sg18
V/usr/share/fonts/opentype/mathjax/MathJax_Size3-Regular.otf
p1168
sg20
g21
sbag1
(g8
g3
NtRp1169
(dp1170
g11
g12
sg13
S'GFS Gazis'
p1171
sg15
I400
sg16
g12
sg17
g12
sg18
V/usr/share/fonts/truetype/gazis/GFSGazis.otf
p1172
sg20
g21
sbag1
(g8
g3
NtRp1173
(dp1174
g11
g12
sg13
S'Amiri Quran'
p1175
sg15
I400
sg16
g12
sg17
g12
sg18
V/usr/share/fonts/opentype/fonts-hosny-amiri/amiri-quran.ttf
p1176
sg20
g21
sbag1
(g8
g3
NtRp1177
(dp1178
g11
g28
sg13
S'DejaVu Serif'
p1179
sg15
I400
sg16
g239
sg17
g12
sg18
V/usr/share/fonts/truetype/dejavu/DejaVuSerifCondensed-Italic.ttf
p1180
sg20
g21
sbag1
(g8
g3
NtRp1181
(dp1182
g11
g12
sg13
S'KacstArt'
p1183
sg15
I400
sg16
g12
sg17
g12
sg18
V/usr/share/fonts/truetype/kacst/KacstArt.ttf
p1184
sg20
g21
sbag1
(g8
g3
NtRp1185
(dp1186
g11
g28
sg13
S'Liberation Sans Narrow'
p1187
sg15
I700
sg16
g239
sg17
g12
sg18
V/usr/share/fonts/truetype/liberation/LiberationSansNarrow-BoldItalic.ttf
p1188
sg20
g21
sbag1
(g8
g3
NtRp1189
(dp1190
g11
g12
sg13
S'GFS Didot'
p1191
sg15
I400
sg16
g12
sg17
g12
sg18
V/usr/share/fonts/truetype/didot/GFSDidot.otf
p1192
sg20
g21
sbag1
(g8
g3
NtRp1193
(dp1194
g11
g12
sg13
S'Liberation Sans'
p1195
sg15
I400
sg16
g12
sg17
g12
sg18
V/usr/share/fonts/truetype/liberation/LiberationSans-Regular.ttf
p1196
sg20
g21
sbag1
(g8
g3
NtRp1197
(dp1198
g11
g12
sg13
S'Ubuntu Mono'
p1199
sg15
I700
sg16
g12
sg17
g12
sg18
V/usr/share/fonts/truetype/ubuntu-font-family/UbuntuMono-B.ttf
p1200
sg20
g21
sbag1
(g8
g3
NtRp1201
(dp1202
g11
g12
sg13
S'STIXSizeTwoSym'
p1203
sg15
I700
sg16
g12
sg17
g12
sg18
V/usr/share/fonts/opentype/stix/STIXSizeTwoSym-Bold.otf
p1204
sg20
g21
sbag1
(g8
g3
NtRp1205
(dp1206
g11
g12
sg13
S'MathJax_Main'
p1207
sg15
I700
sg16
g12
sg17
g12
sg18
V/usr/share/fonts/opentype/mathjax/MathJax_Main-Bold.otf
p1208
sg20
g21
sbag1
(g8
g3
NtRp1209
(dp1210
g11
g12
sg13
S'IPAexMincho'
p1211
sg15
I400
sg16
g12
sg17
g12
sg18
V/usr/share/fonts/opentype/ipaexfont-mincho/ipaexm.ttf
p1212
sg20
g21
sbag1
(g8
g3
NtRp1213
(dp1214
g11
g12
sg13
S'Rachana'
p1215
sg15
I400
sg16
g12
sg17
g12
sg18
V/usr/share/fonts/truetype/ttf-indic-fonts-core/Rachana_04.ttf
p1216
sg20
g21
sbag1
(g8
g3
NtRp1217
(dp1218
g11
g12
sg13
S'Kinnari'
p1219
sg15
I700
sg16
g12
sg17
g12
sg18
V/usr/share/fonts/truetype/tlwg/Kinnari-Bold.ttf
p1220
sg20
g21
sbag1
(g8
g3
NtRp1221
(dp1222
g11
g28
sg13
S'Lobster Two'
p1223
sg15
I700
sg16
g12
sg17
g12
sg18
V/usr/share/fonts/opentype/lobster/lobster.otf
p1224
sg20
g21
sbag1
(g8
g3
NtRp1225
(dp1226
g11
g12
sg13
S'IPAexGothic'
p1227
sg15
I400
sg16
g12
sg17
g12
sg18
V/usr/share/fonts/opentype/ipaexfont-gothic/ipaexg.ttf
p1228
sg20
g21
sbag1
(g8
g3
NtRp1229
(dp1230
g11
g37
sg13
S'TlwgTypewriter'
p1231
sg15
I700
sg16
g12
sg17
g12
sg18
V/usr/share/fonts/truetype/tlwg/TlwgTypewriter-BoldOblique.ttf
p1232
sg20
g21
sbag1
(g8
g3
NtRp1233
(dp1234
g11
g28
sg13
S'Gentium Book Basic'
p1235
sg15
I400
sg16
g12
sg17
g12
sg18
V/usr/share/fonts/truetype/gentium-basic/GenBkBasI.ttf
p1236
sg20
g21
sbag1
(g8
g3
NtRp1237
(dp1238
g11
g37
sg13
S'DejaVu Sans'
p1239
sg15
I400
sg16
g12
sg17
g12
sg18
V/usr/share/fonts/truetype/dejavu/DejaVuSans-Oblique.ttf
p1240
sg20
g21
sbag1
(g8
g3
NtRp1241
(dp1242
g11
g12
sg13
S'FreeSerif'
p1243
sg15
I400
sg16
g12
sg17
g12
sg18
V/usr/share/fonts/truetype/freefont/FreeSerif.ttf
p1244
sg20
g21
sbag1
(g8
g3
NtRp1245
(dp1246
g11
g28
sg13
S'STIXGeneral'
p1247
sg15
I400
sg16
g12
sg17
g12
sg18
V/usr/share/fonts/opentype/stix/STIXGeneral-Italic.otf
p1248
sg20
g21
sbag1
(g8
g3
NtRp1249
(dp1250
g11
g37
sg13
S'Sawasdee'
p1251
sg15
I700
sg16
g12
sg17
g12
sg18
V/usr/share/fonts/truetype/tlwg/Sawasdee-BoldOblique.ttf
p1252
sg20
g21
sbag1
(g8
g3
NtRp1253
(dp1254
g11
g12
sg13
S'Sawasdee'
p1255
sg15
I700
sg16
g12
sg17
g12
sg18
V/usr/share/fonts/truetype/tlwg/Sawasdee-Bold.ttf
p1256
sg20
g21
sbag1
(g8
g3
NtRp1257
(dp1258
g11
g12
sg13
S'STIXIntegralsSm'
p1259
sg15
I400
sg16
g12
sg17
g12
sg18
V/usr/share/fonts/opentype/stix/STIXIntegralsSm-Regular.otf
p1260
sg20
g21
sbag1
(g8
g3
NtRp1261
(dp1262
g11
g12
sg13
S'Kedage'
p1263
sg15
I400
sg16
g12
sg17
g12
sg18
V/usr/share/fonts/truetype/ttf-indic-fonts-core/Kedage-n.ttf
p1264
sg20
g21
sbag1
(g8
g3
NtRp1265
(dp1266
g11
g12
sg13
S'Lohit Gujarati'
p1267
sg15
I400
sg16
g12
sg17
g12
sg18
V/usr/share/fonts/truetype/ttf-indic-fonts-core/lohit_gu.ttf
p1268
sg20
g21
sbag1
(g8
g3
NtRp1269
(dp1270
g11
g12
sg13
S'Accanthis ADF Std'
p1271
sg15
I700
sg16
g12
sg17
g12
sg18
V/usr/share/fonts/truetype/adf/AccanthisADFStd-Bold.otf
p1272
sg20
g21
sbag1
(g8
g3
NtRp1273
(dp1274
g11
g12
sg13
S'NanumMyeongjo'
p1275
sg15
I400
sg16
g12
sg17
g12
sg18
V/usr/share/fonts/truetype/nanum/NanumMyeongjo.ttf
p1276
sg20
g21
sbag1
(g8
g3
NtRp1277
(dp1278
g11
g12
sg13
S'Linux Libertine Mono O'
p1279
sg15
I400
sg16
g12
sg17
g12
sg18
V/usr/share/fonts/opentype/linux-libertine/LinLibertine_M.otf
p1280
sg20
g21
sbag1
(g8
g3
NtRp1281
(dp1282
g11
g12
sg13
S'STIXGeneral'
p1283
sg15
I700
sg16
g12
sg17
g12
sg18
V/usr/share/fonts/opentype/stix/STIXGeneral-Bold.otf
p1284
sg20
g21
sbag1
(g8
g3
NtRp1285
(dp1286
g11
g12
sg13
S'GFS Complutum'
p1287
sg15
I400
sg16
g12
sg17
g12
sg18
V/usr/share/fonts/truetype/complutum/GFSPolyglot.otf
p1288
sg20
g21
sbag1
(g8
g3
NtRp1289
(dp1290
g11
g12
sg13
S'Loma'
p1291
sg15
I700
sg16
g12
sg17
g12
sg18
V/usr/share/fonts/truetype/tlwg/Loma-Bold.ttf
p1292
sg20
g21
sbag1
(g8
g3
NtRp1293
(dp1294
g11
g12
sg13
S'KacstPen'
p1295
sg15
I400
sg16
g12
sg17
g12
sg18
V/usr/share/fonts/truetype/kacst/KacstPen.ttf
p1296
sg20
g21
sbag1
(g8
g3
NtRp1297
(dp1298
g11
g12
sg13
S'STIXSizeFourSym'
p1299
sg15
I400
sg16
g12
sg17
g12
sg18
V/usr/share/fonts/opentype/stix/STIXSizeFourSym-Regular.otf
p1300
sg20
g21
sbag1
(g8
g3
NtRp1301
(dp1302
g11
g28
sg13
S'Linux Libertine O'
p1303
sg15
I700
sg16
g12
sg17
g12
sg18
V/usr/share/fonts/opentype/linux-libertine/LinLibertine_RBI.otf
p1304
sg20
g21
sbag1
(g8
g3
NtRp1305
(dp1306
g11
g12
sg13
S'IPAPMincho'
p1307
sg15
I400
sg16
g12
sg17
g12
sg18
V/usr/share/fonts/opentype/ipafont-mincho/ipamp.ttf
p1308
sg20
g21
sbag1
(g8
g3
NtRp1309
(dp1310
g11
g28
sg13
S'FreeSerif'
p1311
sg15
I400
sg16
g12
sg17
g12
sg18
V/usr/share/fonts/truetype/freefont/FreeSerifItalic.ttf
p1312
sg20
g21
sbag1
(g8
g3
NtRp1313
(dp1314
g11
g28
sg13
S'Cabin'
p1315
sg15
I700
sg16
g12
sg17
g12
sg18
V/usr/share/fonts/opentype/cabin/Cabin-BoldItalic.otf
p1316
sg20
g21
sbag1
(g8
g3
NtRp1317
(dp1318
g11
g12
sg13
S'Droid Sans Japanese'
p1319
sg15
I400
sg16
g12
sg17
g12
sg18
V/usr/share/fonts/truetype/droid/DroidSansJapanese.ttf
p1320
sg20
g21
sbag1
(g8
g3
NtRp1321
(dp1322
g11
g28
sg13
S'Liberation Sans Narrow'
p1323
sg15
I400
sg16
g239
sg17
g12
sg18
V/usr/share/fonts/truetype/liberation/LiberationSansNarrow-Italic.ttf
p1324
sg20
g21
sbag1
(g8
g3
NtRp1325
(dp1326
g11
g12
sg13
S'Mallige'
p1327
sg15
I700
sg16
g12
sg17
g12
sg18
V/usr/share/fonts/truetype/ttf-indic-fonts-core/Malige-b.ttf
p1328
sg20
g21
sbag1
(g8
g3
NtRp1329
(dp1330
g11
g12
sg13
S'Linux Libertine O'
p1331
sg15
I700
sg16
g12
sg17
g12
sg18
V/usr/share/fonts/opentype/linux-libertine/LinLibertine_RB.otf
p1332
sg20
g21
sbag1
(g8
g3
NtRp1333
(dp1334
g11
g12
sg13
S'Gillius ADF Cd'
p1335
sg15
I700
sg16
g12
sg17
g12
sg18
V/usr/share/fonts/truetype/adf/GilliusADFCd-Bold.otf
p1336
sg20
g21
sbag1
(g8
g3
NtRp1337
(dp1338
g11
g12
sg13
S'STIXIntegralsUpSm'
p1339
sg15
I400
sg16
g12
sg17
g12
sg18
V/usr/share/fonts/opentype/stix/STIXIntegralsUpSm-Regular.otf
p1340
sg20
g21
sbag1
(g8
g3
NtRp1341
(dp1342
g11
g12
sg13
S'MathJax_SansSerif'
p1343
sg15
I400
sg16
g12
sg17
g12
sg18
V/usr/share/fonts/opentype/mathjax/MathJax_SansSerif-Regular.otf
p1344
sg20
g21
sbag1
(g8
g3
NtRp1345
(dp1346
g11
g28
sg13
S'Junicode'
p1347
sg15
I400
sg16
g12
sg17
g12
sg18
V/usr/share/fonts/truetype/junicode/Junicode-Italic.ttf
p1348
sg20
g21
sbag1
(g8
g3
NtRp1349
(dp1350
g11
g12
sg13
S'FreeMono'
p1351
sg15
I400
sg16
g12
sg17
g12
sg18
V/usr/share/fonts/opentype/freefont/FreeMono.otf
p1352
sg20
g21
sbag1
(g8
g3
NtRp1353
(dp1354
g11
g12
sg13
S'Droid Serif'
p1355
sg15
I700
sg16
g12
sg17
g12
sg18
V/usr/share/fonts/truetype/droid/DroidSerif-Bold.ttf
p1356
sg20
g21
sbag1
(g8
g3
NtRp1357
(dp1358
g11
g12
sg13
S'Meera'
p1359
sg15
I400
sg16
g12
sg17
g12
sg18
V/usr/share/fonts/truetype/ttf-indic-fonts-core/Meera_04.ttf
p1360
sg20
g21
sbag1
(g8
g3
NtRp1361
(dp1362
g11
g37
sg13
S'Umpush'
p1363
sg15
I200
sg16
g12
sg17
g12
sg18
V/usr/share/fonts/truetype/tlwg/Umpush-LightOblique.ttf
p1364
sg20
g21
sbag1
(g8
g3
NtRp1365
(dp1366
g11
g12
sg13
S'Tlwg Typo'
p1367
sg15
I400
sg16
g12
sg17
g12
sg18
V/usr/share/fonts/truetype/tlwg/TlwgTypo.ttf
p1368
sg20
g21
sbag1
(g8
g3
NtRp1369
(dp1370
g11
g12
sg13
S'Gentium'
p1371
sg15
I400
sg16
g12
sg17
g12
sg18
V/usr/share/fonts/truetype/gentium/GenR102.ttf
p1372
sg20
g21
sbag1
(g8
g3
NtRp1373
(dp1374
g11
g37
sg13
S'FreeSans'
p1375
sg15
I400
sg16
g12
sg17
g12
sg18
V/usr/share/fonts/truetype/freefont/FreeSansOblique.ttf
p1376
sg20
g21
sbag1
(g8
g3
NtRp1377
(dp1378
g11
g12
sg13
S'Gentium Basic'
p1379
sg15
I700
sg16
g12
sg17
g12
sg18
V/usr/share/fonts/truetype/gentium-basic/GenBasB.ttf
p1380
sg20
g21
sbag1
(g8
g3
NtRp1381
(dp1382
g11
g12
sg13
S'Liberation Sans'
p1383
sg15
I700
sg16
g12
sg17
g12
sg18
V/usr/share/fonts/truetype/liberation/LiberationSans-Bold.ttf
p1384
sg20
g21
sbag1
(g8
g3
NtRp1385
(dp1386
g11
g12
sg13
S'Accanthis ADF Std No3'
p1387
sg15
I700
sg16
g12
sg17
g12
sg18
V/usr/share/fonts/truetype/adf/AccanthisADFStdNo3-Bold.otf
p1388
sg20
g21
sbag1
(g8
g3
NtRp1389
(dp1390
g11
g12
sg13
S'Liberation Mono'
p1391
sg15
I400
sg16
g12
sg17
g12
sg18
V/usr/share/fonts/truetype/liberation/LiberationMono-Regular.ttf
p1392
sg20
g21
sbag1
(g8
g3
NtRp1393
(dp1394
g11
g12
sg13
S'MathJax_Typewriter'
p1395
sg15
I400
sg16
g12
sg17
g12
sg18
V/usr/share/fonts/opentype/mathjax/MathJax_Typewriter-Regular.otf
p1396
sg20
g21
sbag1
(g8
g3
NtRp1397
(dp1398
g11
g12
sg13
S'STIXVariants'
p1399
sg15
I400
sg16
g12
sg17
g12
sg18
V/usr/share/fonts/opentype/stix/STIXVariants-Regular.otf
p1400
sg20
g21
sbag1
(g8
g3
NtRp1401
(dp1402
g11
g28
sg13
S'rsfs10'
p1403
sg15
I400
sg16
g12
sg17
g12
sg18
V/usr/share/fonts/truetype/lyx/rsfs10.ttf
p1404
sg20
g21
sbag1
(g8
g3
NtRp1405
(dp1406
g11
g12
sg13
S'Gentium Book Basic'
p1407
sg15
I700
sg16
g12
sg17
g12
sg18
V/usr/share/fonts/truetype/gentium-basic/GenBkBasB.ttf
p1408
sg20
g21
sbag1
(g8
g3
NtRp1409
(dp1410
g11
g12
sg13
S'Garuda'
p1411
sg15
I400
sg16
g12
sg17
g12
sg18
V/usr/share/fonts/truetype/tlwg/Garuda.ttf
p1412
sg20
g21
sbag1
(g8
g3
NtRp1413
(dp1414
g11
g12
sg13
S'mry_KacstQurn'
p1415
sg15
I400
sg16
g12
sg17
g12
sg18
V/usr/share/fonts/truetype/kacst/mry_KacstQurn.ttf
p1416
sg20
g21
sbag1
(g8
g3
NtRp1417
(dp1418
g11
g12
sg13
S'Lato'
p1419
sg15
I200
sg16
g12
sg17
g12
sg18
V/usr/share/fonts/truetype/lato/Lato-Lig.ttf
p1420
sg20
g21
sbag1
(g8
g3
NtRp1421
(dp1422
g11
g12
sg13
S'Tibetan Machine Uni'
p1423
sg15
I400
sg16
g12
sg17
g12
sg18
V/usr/share/fonts/truetype/tibetan-machine/TibetanMachineUni.ttf
p1424
sg20
g21
sbag1
(g8
g3
NtRp1425
(dp1426
g11
g28
sg13
S'Cabin'
p1427
sg15
I700
sg16
g12
sg17
g12
sg18
V/usr/share/fonts/opentype/cabin/Cabin-SemiBoldItalic.otf
p1428
sg20
g21
sbag1
(g8
g3
NtRp1429
(dp1430
g11
g28
sg13
S'Accanthis ADF Std'
p1431
sg15
I700
sg16
g12
sg17
g12
sg18
V/usr/share/fonts/truetype/adf/AccanthisADFStd-BoldItalic.otf
p1432
sg20
g21
sbag1
(g8
g3
NtRp1433
(dp1434
g11
g12
sg13
S'KacstOne'
p1435
sg15
I700
sg16
g12
sg17
g12
sg18
V/usr/share/fonts/truetype/kacst-one/KacstOne-Bold.ttf
p1436
sg20
g21
sbag1
(g8
g3
NtRp1437
(dp1438
g11
g12
sg13
S'Linux Libertine Display O'
p1439
sg15
I400
sg16
g12
sg17
g12
sg18
V/usr/share/fonts/opentype/linux-libertine/LinLibertine_DR.otf
p1440
sg20
g21
sbag1
(g8
g3
NtRp1441
(dp1442
g11
g12
sg13
S'Lobster Two'
p1443
sg15
I400
sg16
g12
sg17
g12
sg18
V/usr/share/fonts/opentype/lobstertwo/LobsterTwo-Regular.otf
p1444
sg20
g21
sbag1
(g8
g3
NtRp1445
(dp1446
g11
g12
sg13
S'KacstDigital'
p1447
sg15
I400
sg16
g12
sg17
g12
sg18
V/usr/share/fonts/truetype/kacst/KacstDigital.ttf
p1448
sg20
g21
sbag1
(g8
g3
NtRp1449
(dp1450
g11
g37
sg13
S'FreeMono'
p1451
sg15
I400
sg16
g12
sg17
g12
sg18
V/usr/share/fonts/opentype/freefont/FreeMonoOblique.otf
p1452
sg20
g21
sbag1
(g8
g3
NtRp1453
(dp1454
g11
g12
sg13
S'eufm10'
p1455
sg15
I400
sg16
g12
sg17
g12
sg18
V/usr/share/fonts/truetype/lyx/eufm10.ttf
p1456
sg20
g21
sbag1
(g8
g3
NtRp1457
(dp1458
g11
g12
sg13
S'esint10'
p1459
sg15
I400
sg16
g12
sg17
g12
sg18
V/usr/share/fonts/truetype/lyx/esint10.ttf
p1460
sg20
g21
sbag1
(g8
g3
NtRp1461
(dp1462
g11
g12
sg13
S'STIXIntegralsUpD'
p1463
sg15
I400
sg16
g12
sg17
g12
sg18
V/usr/share/fonts/opentype/stix/STIXIntegralsUpD-Regular.otf
p1464
sg20
g21
sbag1
(g8
g3
NtRp1465
(dp1466
g11
g28
sg13
S'MathJax_SansSerif'
p1467
sg15
I400
sg16
g12
sg17
g12
sg18
V/usr/share/fonts/opentype/mathjax/MathJax_SansSerif-Italic.otf
p1468
sg20
g21
sbag1
(g8
g3
NtRp1469
(dp1470
g11
g28
sg13
S'Gillius ADF'
p1471
sg15
I700
sg16
g12
sg17
g12
sg18
V/usr/share/fonts/truetype/adf/GilliusADF-BoldItalic.otf
p1472
sg20
g21
sbag1
(g8
g3
NtRp1473
(dp1474
g11
g12
sg13
S'GFS Baskerville'
p1475
sg15
I400
sg16
g12
sg17
g12
sg18
V/usr/share/fonts/truetype/baskerville/GFSBaskerville.otf
p1476
sg20
g21
sbag1
(g8
g3
NtRp1477
(dp1478
g11
g12
sg13
S'Droid Sans Georgian'
p1479
sg15
I400
sg16
g12
sg17
g12
sg18
V/usr/share/fonts/truetype/droid/DroidSansGeorgian.ttf
p1480
sg20
g21
sbag1
(g8
g3
NtRp1481
(dp1482
g11
g12
sg13
S'GFS Artemisia'
p1483
sg15
I400
sg16
g12
sg17
g12
sg18
V/usr/share/fonts/truetype/artemisia/GFSArtemisia.otf
p1484
sg20
g21
sbag1
(g8
g3
NtRp1485
(dp1486
g11
g12
sg13
S'IPAexMincho'
p1487
sg15
I400
sg16
g12
sg17
g12
sg18
V/usr/share/fonts/truetype/fonts-japanese-mincho.ttf
p1488
sg20
g21
sbag1
(g8
g3
NtRp1489
(dp1490
g11
g28
sg13
S'Linux Libertine O'
p1491
sg15
I400
sg16
g12
sg17
g12
sg18
V/usr/share/fonts/opentype/linux-libertine/LinLibertine_RI.otf
p1492
sg20
g21
sbag1
(g8
g3
NtRp1493
(dp1494
g11
g12
sg13
S'Linux Biolinum O'
p1495
sg15
I400
sg16
g12
sg17
g12
sg18
V/usr/share/fonts/opentype/linux-libertine/LinBiolinum_R.otf
p1496
sg20
g21
sbag1
(g8
g3
NtRp1497
(dp1498
g11
g12
sg13
S'Padauk'
p1499
sg15
I700
sg16
g12
sg17
g12
sg18
V/usr/share/fonts/truetype/padauk/Padauk-bold.ttf
p1500
sg20
g21
sbag1
(g8
g3
NtRp1501
(dp1502
g11
g12
sg13
S'DejaVu Sans Mono'
p1503
sg15
I400
sg16
g12
sg17
g12
sg18
V/usr/share/fonts/truetype/dejavu/DejaVuSansMono.ttf
p1504
sg20
g21
sbag1
(g8
g3
NtRp1505
(dp1506
g11
g12
sg13
S'Rekha'
p1507
sg15
I400
sg16
g12
sg17
g12
sg18
V/usr/share/fonts/truetype/ttf-indic-fonts-core/Rekha.ttf
p1508
sg20
g21
sbag1
(g8
g3
NtRp1509
(dp1510
g11
g12
sg13
S'MathJax_WinIE6'
p1511
sg15
I400
sg16
g12
sg17
g12
sg18
V/usr/share/fonts/opentype/mathjax/MathJax_WinIE6-Regular.otf
p1512
sg20
g21
sbag1
(g8
g3
NtRp1513
(dp1514
g11
g12
sg13
S'MathJax_Caligraphic'
p1515
sg15
I700
sg16
g12
sg17
g12
sg18
V/usr/share/fonts/opentype/mathjax/MathJax_Caligraphic-Bold.otf
p1516
sg20
g21
sbag1
(g8
g3
NtRp1517
(dp1518
g11
g12
sg13
S'GFS BodoniClassic'
p1519
sg15
I400
sg16
g12
sg17
g12
sg18
V/usr/share/fonts/truetype/bodoni-classic/GFSBodoniClassic.otf
p1520
sg20
g21
sbag1
(g8
g3
NtRp1521
(dp1522
g11
g12
sg13
S'GentiumAlt'
p1523
sg15
I400
sg16
g12
sg17
g12
sg18
V/usr/share/fonts/truetype/gentium/GenAR102.ttf
p1524
sg20
g21
sbag1
(g8
g3
NtRp1525
(dp1526
g11
g37
sg13
S'Umpush'
p1527
sg15
I700
sg16
g12
sg17
g12
sg18
V/usr/share/fonts/truetype/tlwg/Umpush-BoldOblique.ttf
p1528
sg20
g21
sbag1
(g8
g3
NtRp1529
(dp1530
g11
g28
sg13
S'Droid Serif'
p1531
sg15
I400
sg16
g12
sg17
g12
sg18
V/usr/share/fonts/truetype/droid/DroidSerif-Italic.ttf
p1532
sg20
g21
sbag1
(g8
g3
NtRp1533
(dp1534
g11
g12
sg13
S'Tlwg Typo'
p1535
sg15
I700
sg16
g12
sg17
g12
sg18
V/usr/share/fonts/truetype/tlwg/TlwgTypo-Bold.ttf
p1536
sg20
g21
sbag1
(g8
g3
NtRp1537
(dp1538
g11
g28
sg13
S'Liberation Serif'
p1539
sg15
I400
sg16
g12
sg17
g12
sg18
V/usr/share/fonts/truetype/liberation/LiberationSerif-Italic.ttf
p1540
sg20
g21
sbag1
(g8
g3
NtRp1541
(dp1542
g11
g12
sg13
S'TlwgTypewriter'
p1543
sg15
I700
sg16
g12
sg17
g12
sg18
V/usr/share/fonts/truetype/tlwg/TlwgTypewriter-Bold.ttf
p1544
sg20
g21
sbag1
(g8
g3
NtRp1545
(dp1546
g11
g37
sg13
S'Waree'
p1547
sg15
I700
sg16
g12
sg17
g12
sg18
V/usr/share/fonts/truetype/tlwg/Waree-BoldOblique.ttf
p1548
sg20
g21
sbag1
(g8
g3
NtRp1549
(dp1550
g11
g12
sg13
S'STIXNonUnicode'
p1551
sg15
I700
sg16
g12
sg17
g12
sg18
V/usr/share/fonts/opentype/stix/STIXNonUnicode-Bold.otf
p1552
sg20
g21
sbag1
(g8
g3
NtRp1553
(dp1554
g11
g28
sg13
S'FreeSerif'
p1555
sg15
I700
sg16
g12
sg17
g12
sg18
V/usr/share/fonts/truetype/freefont/FreeSerifBoldItalic.ttf
p1556
sg20
g21
sbag1
(g8
g3
NtRp1557
(dp1558
g11
g12
sg13
S'Vemana2000'
p1559
sg15
I400
sg16
g12
sg17
g12
sg18
V/usr/share/fonts/truetype/ttf-indic-fonts-core/Vemana.ttf
p1560
sg20
g21
sbag1
(g8
g3
NtRp1561
(dp1562
g11
g12
sg13
S'STIXSizeThreeSym'
p1563
sg15
I700
sg16
g12
sg17
g12
sg18
V/usr/share/fonts/opentype/stix/STIXSizeThreeSym-Bold.otf
p1564
sg20
g21
sbag1
(g8
g3
NtRp1565
(dp1566
g11
g37
sg13
S'Tlwg Typo'
p1567
sg15
I400
sg16
g12
sg17
g12
sg18
V/usr/share/fonts/truetype/tlwg/TlwgTypo-Oblique.ttf
p1568
sg20
g21
sbag1
(g8
g3
NtRp1569
(dp1570
g11
g12
sg13
S'Droid Sans'
p1571
sg15
I700
sg16
g12
sg17
g12
sg18
V/usr/share/fonts/truetype/droid/DroidSans-Bold.ttf
p1572
sg20
g21
sbag1
(g8
g3
NtRp1573
(dp1574
g11
g37
sg13
S'Waree'
p1575
sg15
I400
sg16
g12
sg17
g12
sg18
V/usr/share/fonts/truetype/tlwg/Waree-Oblique.ttf
p1576
sg20
g21
sbag1
(g8
g3
NtRp1577
(dp1578
g11
g12
sg13
S'GFS Neohellenic'
p1579
sg15
I400
sg16
g12
sg17
g12
sg18
V/usr/share/fonts/truetype/neohellenic/GFSNeohellenic.otf
p1580
sg20
g21
sbag1
(g8
g3
NtRp1581
(dp1582
g11
g12
sg13
S'Norasi'
p1583
sg15
I400
sg16
g12
sg17
g12
sg18
V/usr/share/fonts/truetype/tlwg/Norasi.ttf
p1584
sg20
g21
sbag1
(g8
g3
NtRp1585
(dp1586
g11
g28
sg13
S'Ubuntu'
p1587
sg15
I500
sg16
g12
sg17
g12
sg18
V/usr/share/fonts/truetype/ubuntu-font-family/Ubuntu-MI.ttf
p1588
sg20
g21
sbag1
(g8
g3
NtRp1589
(dp1590
g11
g12
sg13
S'Droid Sans Thai'
p1591
sg15
I400
sg16
g12
sg17
g12
sg18
V/usr/share/fonts/truetype/droid/DroidSansThai.ttf
p1592
sg20
g21
sbag1
(g8
g3
NtRp1593
(dp1594
g11
g12
sg13
S'Gillius ADF No2'
p1595
sg15
I400
sg16
g12
sg17
g12
sg18
V/usr/share/fonts/truetype/adf/GilliusADFNo2-Regular.otf
p1596
sg20
g21
sbag1
(g8
g3
NtRp1597
(dp1598
g11
g12
sg13
S'STIXSizeFourSym'
p1599
sg15
I700
sg16
g12
sg17
g12
sg18
V/usr/share/fonts/opentype/stix/STIXSizeFourSym-Bold.otf
p1600
sg20
g21
sbag1
(g8
g3
NtRp1601
(dp1602
g11
g37
sg13
S'TlwgMono'
p1603
sg15
I700
sg16
g12
sg17
g12
sg18
V/usr/share/fonts/truetype/tlwg/TlwgMono-BoldOblique.ttf
p1604
sg20
g21
sbag1
(g8
g3
NtRp1605
(dp1606
g11
g12
sg13
S'GFS Didot Classic'
p1607
sg15
I400
sg16
g12
sg17
g12
sg18
V/usr/share/fonts/truetype/didot-classic/GFSDidotClassic.otf
p1608
sg20
g21
sbag1
(g8
g3
NtRp1609
(dp1610
g11
g28
sg13
S'Linux Biolinum O'
p1611
sg15
I400
sg16
g12
sg17
g12
sg18
V/usr/share/fonts/opentype/linux-libertine/LinBiolinum_RI.otf
p1612
sg20
g21
sbag1
(g8
g3
NtRp1613
(dp1614
g11
g12
sg13
S'KacstQurn'
p1615
sg15
I400
sg16
g12
sg17
g12
sg18
V/usr/share/fonts/truetype/kacst/KacstQurn.ttf
p1616
sg20
g21
sbag1
(g8
g3
NtRp1617
(dp1618
g11
g37
sg13
S'FreeSans'
p1619
sg15
I700
sg16
g12
sg17
g12
sg18
V/usr/share/fonts/opentype/freefont/FreeSansBoldOblique.otf
p1620
sg20
g21
sbag1
(g8
g3
NtRp1621
(dp1622
g11
g12
sg13
S'Padauk Book'
p1623
sg15
I400
sg16
g12
sg17
g12
sg18
V/usr/share/fonts/truetype/padauk/Padauk-book.ttf
p1624
sg20
g21
sbag1
(g8
g3
NtRp1625
(dp1626
g11
g12
sg13
S'KacstOffice'
p1627
sg15
I400
sg16
g12
sg17
g12
sg18
V/usr/share/fonts/truetype/kacst/KacstOffice.ttf
p1628
sg20
g21
sbag1
(g8
g3
NtRp1629
(dp1630
g11
g12
sg13
S'Abyssinica SIL'
p1631
sg15
I400
sg16
g12
sg17
g12
sg18
V/usr/share/fonts/truetype/abyssinica/AbyssinicaSIL-R.ttf
p1632
sg20
g21
sbag1
(g8
g3
NtRp1633
(dp1634
g11
g28
sg13
S'FreeSerif'
p1635
sg15
I700
sg16
g12
sg17
g12
sg18
V/usr/share/fonts/opentype/freefont/FreeSerifBoldItalic.otf
p1636
sg20
g21
sbag1
(g8
g3
NtRp1637
(dp1638
g11
g12
sg13
S'STIXIntegralsUpD'
p1639
sg15
I700
sg16
g12
sg17
g12
sg18
V/usr/share/fonts/opentype/stix/STIXIntegralsUpD-Bold.otf
p1640
sg20
g21
sbag1
(g8
g3
NtRp1641
(dp1642
g11
g12
sg13
S'Loma'
p1643
sg15
I400
sg16
g12
sg17
g12
sg18
V/usr/share/fonts/truetype/tlwg/Loma.ttf
p1644
sg20
g21
sbag1
(g8
g3
NtRp1645
(dp1646
g11
g37
sg13
S'Garuda'
p1647
sg15
I400
sg16
g12
sg17
g12
sg18
V/usr/share/fonts/truetype/tlwg/Garuda-Oblique.ttf
p1648
sg20
g21
sbag1
(g8
g3
NtRp1649
(dp1650
g11
g37
sg13
S'Tlwg Typo'
p1651
sg15
I700
sg16
g12
sg17
g12
sg18
V/usr/share/fonts/truetype/tlwg/TlwgTypo-BoldOblique.ttf
p1652
sg20
g21
sbag1
(g8
g3
NtRp1653
(dp1654
g11
g12
sg13
S'FreeMono'
p1655
sg15
I700
sg16
g12
sg17
g12
sg18
V/usr/share/fonts/opentype/freefont/FreeMonoBold.otf
p1656
sg20
g21
sbag1
(g8
g3
NtRp1657
(dp1658
g11
g12
sg13
S'KacstTitleL'
p1659
sg15
I400
sg16
g12
sg17
g12
sg18
V/usr/share/fonts/truetype/kacst/KacstTitleL.ttf
p1660
sg20
g21
sbag1
(g8
g3
NtRp1661
(dp1662
g11
g28
sg13
S'MathJax_Math'
p1663
sg15
I700
sg16
g12
sg17
g12
sg18
V/usr/share/fonts/opentype/mathjax/MathJax_Math-BoldItalic.otf
p1664
sg20
g21
sbag1
(g8
g3
NtRp1665
(dp1666
g11
g12
sg13
S'Droid Sans Hebrew'
p1667
sg15
I400
sg16
g12
sg17
g12
sg18
V/usr/share/fonts/truetype/droid/DroidSansHebrew-Regular.ttf
p1668
sg20
g21
sbasS'defaultFamily'
p1669
(dp1670
Vafm
p1671
VHelvetica
p1672
sVttf
p1673
VBitstream Vera Sans
p1674
ssS'ttffiles'
p1675
(lp1676
g19
ag25
ag30
ag34
ag39
ag43
ag47
ag51
ag55
ag59
ag63
ag67
ag71
ag75
ag79
ag83
ag87
ag91
ag95
ag99
ag103
ag107
ag111
ag115
ag119
ag123
ag127
ag131
ag135
ag139
ag143
ag147
ag151
ag155
ag159
ag163
ag167
ag171
ag175
ag179
ag183
ag187
ag191
ag195
ag199
ag203
ag207
ag211
ag215
ag219
ag223
ag227
ag231
aV/usr/share/fonts/truetype/lyx/cmmi10.ttf
p1677
ag235
ag240
ag244
ag248
ag252
ag256
ag260
ag264
ag268
ag272
ag276
ag280
ag284
ag288
ag292
ag296
ag300
ag304
ag308
ag312
ag316
ag320
ag324
ag328
ag332
ag336
ag340
ag344
ag348
ag352
ag356
ag360
ag364
ag368
ag372
ag376
ag380
ag384
ag388
ag392
ag396
ag400
ag404
ag408
ag412
ag416
ag420
aV/usr/share/fonts/truetype/lyx/cmsy10.ttf
p1678
ag424
ag428
ag432
ag436
ag440
ag444
ag448
ag452
ag456
ag460
ag464
ag468
ag472
ag476
ag480
ag484
ag488
ag492
ag496
ag500
ag504
ag508
ag512
ag516
ag520
ag524
ag528
ag532
ag536
ag540
ag544
ag548
ag552
ag556
ag560
ag564
ag568
ag572
ag576
ag580
ag584
ag588
ag592
ag596
ag600
ag604
ag608
ag612
ag616
ag620
ag624
ag628
ag632
ag636
ag640
ag644
ag648
ag652
ag656
ag660
ag664
ag668
ag672
ag676
ag680
ag684
ag688
ag692
ag696
ag700
ag704
ag708
ag712
ag716
ag720
ag724
ag728
ag732
ag736
ag740
ag744
ag748
ag752
ag756
ag760
ag764
ag768
ag772
ag776
ag780
ag784
ag788
ag792
ag796
ag800
ag804
ag808
ag812
ag816
ag820
ag824
ag828
ag832
ag836
ag840
ag844
ag848
ag852
ag856
ag860
ag864
ag868
ag872
ag876
ag880
ag884
ag888
ag892
ag896
ag900
ag904
ag908
ag912
ag916
ag920
ag924
ag928
ag932
ag936
ag940
ag944
ag948
ag952
ag956
ag960
ag964
ag968
ag972
ag976
ag980
ag984
ag988
ag992
ag996
ag1000
ag1004
ag1008
ag1012
ag1016
ag1020
ag1024
ag1028
ag1032
ag1036
ag1040
ag1044
ag1048
ag1052
ag1056
ag1060
ag1064
ag1068
ag1072
ag1076
ag1080
ag1084
ag1088
ag1092
ag1096
ag1100
ag1104
ag1108
ag1112
ag1116
ag1120
ag1124
ag1128
ag1132
ag1136
ag1140
ag1144
ag1148
ag1152
ag1156
ag1160
ag1164
ag1168
ag1172
ag1176
ag1180
ag1184
ag1188
ag1192
ag1196
ag1200
ag1204
ag1208
ag1212
ag1216
ag1220
ag1224
ag1228
ag1232
ag1236
ag1240
ag1244
ag1248
ag1252
ag1256
ag1260
ag1264
aV/usr/share/fonts/truetype/lyx/cmex10.ttf
p1679
ag1268
ag1272
ag1276
ag1280
ag1284
ag1288
ag1292
ag1296
ag1300
ag1304
ag1308
ag1312
ag1316
ag1320
ag1324
aV/usr/share/fonts/truetype/lyx/cmr10.ttf
p1680
ag1328
ag1332
ag1336
ag1340
ag1344
ag1348
ag1352
ag1356
ag1360
ag1364
ag1368
ag1372
ag1376
ag1380
ag1384
ag1388
ag1392
ag1396
ag1400
ag1404
ag1408
ag1412
ag1416
ag1420
ag1424
ag1428
ag1432
ag1436
ag1440
ag1444
ag1448
ag1452
ag1456
ag1460
ag1464
ag1468
ag1472
ag1476
ag1480
ag1484
ag1488
ag1492
ag1496
ag1500
ag1504
ag1508
ag1512
ag1516
ag1520
ag1524
ag1528
ag1532
ag1536
ag1540
ag1544
ag1548
ag1552
ag1556
ag1560
ag1564
ag1568
ag1572
ag1576
ag1580
ag1584
ag1588
ag1592
ag1596
ag1600
ag1604
ag1608
ag1612
ag1616
ag1620
ag1624
ag1628
ag1632
ag1636
ag1640
ag1644
ag1648
ag1652
ag1656
ag1660
ag1664
ag1668
asS'_FontManager__default_weight'
p1681
Vnormal
p1682
sS'_version'
p1683
I101
sS'default_size'
p1684
NsS'defaultFont'
p1685
(dp1686
g1671
V/home/kyle/anaconda/lib/python2.7/site-packages/matplotlib/mpl-data/fonts/afm/putb8a.afm
p1687
sg1673
g79
ssS'afmfiles'
p1688
(lp1689
g1687
aV/home/kyle/anaconda/lib/python2.7/site-packages/matplotlib/mpl-data/fonts/afm/pncbi8a.afm
p1690
aV/home/kyle/anaconda/lib/python2.7/site-packages/matplotlib/mpl-data/fonts/afm/phvro8an.afm
p1691
aV/home/kyle/anaconda/lib/python2.7/site-packages/matplotlib/mpl-data/fonts/afm/pplri8a.afm
p1692
aV/home/kyle/anaconda/lib/python2.7/site-packages/matplotlib/mpl-data/fonts/pdfcorefonts/ZapfDingbats.afm
p1693
aV/home/kyle/anaconda/lib/python2.7/site-packages/matplotlib/mpl-data/fonts/afm/phvro8a.afm
p1694
aV/home/kyle/anaconda/lib/python2.7/site-packages/matplotlib/mpl-data/fonts/afm/ptmr8a.afm
p1695
aV/home/kyle/anaconda/lib/python2.7/site-packages/matplotlib/mpl-data/fonts/pdfcorefonts/Courier-Bold.afm
p1696
aV/home/kyle/anaconda/lib/python2.7/site-packages/matplotlib/mpl-data/fonts/afm/pzcmi8a.afm
p1697
aV/home/kyle/anaconda/lib/python2.7/site-packages/matplotlib/mpl-data/fonts/afm/pcrbo8a.afm
p1698
aV/home/kyle/anaconda/lib/python2.7/site-packages/matplotlib/mpl-data/fonts/afm/pplr8a.afm
p1699
aV/home/kyle/anaconda/lib/python2.7/site-packages/matplotlib/mpl-data/fonts/afm/phvb8an.afm
p1700
aV/home/kyle/anaconda/lib/python2.7/site-packages/matplotlib/mpl-data/fonts/afm/cmex10.afm
p1701
aV/home/kyle/anaconda/lib/python2.7/site-packages/matplotlib/mpl-data/fonts/pdfcorefonts/Helvetica.afm
p1702
aV/home/kyle/anaconda/lib/python2.7/site-packages/matplotlib/mpl-data/fonts/afm/ptmri8a.afm
p1703
aV/home/kyle/anaconda/lib/python2.7/site-packages/matplotlib/mpl-data/fonts/pdfcorefonts/Courier.afm
p1704
aV/home/kyle/anaconda/lib/python2.7/site-packages/matplotlib/mpl-data/fonts/afm/phvr8an.afm
p1705
aV/home/kyle/anaconda/lib/python2.7/site-packages/matplotlib/mpl-data/fonts/pdfcorefonts/Courier-Oblique.afm
p1706
aV/home/kyle/anaconda/lib/python2.7/site-packages/matplotlib/mpl-data/fonts/afm/ptmb8a.afm
p1707
aV/home/kyle/anaconda/lib/python2.7/site-packages/matplotlib/mpl-data/fonts/afm/pplb8a.afm
p1708
aV/home/kyle/anaconda/lib/python2.7/site-packages/matplotlib/mpl-data/fonts/pdfcorefonts/Helvetica-Bold.afm
p1709
aV/home/kyle/anaconda/lib/python2.7/site-packages/matplotlib/mpl-data/fonts/afm/putri8a.afm
p1710
aV/home/kyle/anaconda/lib/python2.7/site-packages/matplotlib/mpl-data/fonts/afm/phvlo8a.afm
p1711
aV/home/kyle/anaconda/lib/python2.7/site-packages/matplotlib/mpl-data/fonts/afm/pbkl8a.afm
p1712
aV/home/kyle/anaconda/lib/python2.7/site-packages/matplotlib/mpl-data/fonts/afm/phvr8a.afm
p1713
aV/home/kyle/anaconda/lib/python2.7/site-packages/matplotlib/mpl-data/fonts/afm/pagko8a.afm
p1714
aV/home/kyle/anaconda/lib/python2.7/site-packages/matplotlib/mpl-data/fonts/afm/cmtt10.afm
p1715
aV/home/kyle/anaconda/lib/python2.7/site-packages/matplotlib/mpl-data/fonts/afm/cmmi10.afm
p1716
aV/home/kyle/anaconda/lib/python2.7/site-packages/matplotlib/mpl-data/fonts/afm/pncri8a.afm
p1717
aV/home/kyle/anaconda/lib/python2.7/site-packages/matplotlib/mpl-data/fonts/afm/phvbo8an.afm
p1718
aV/home/kyle/anaconda/lib/python2.7/site-packages/matplotlib/mpl-data/fonts/afm/pplbi8a.afm
p1719
aV/home/kyle/anaconda/lib/python2.7/site-packages/matplotlib/mpl-data/fonts/afm/pncr8a.afm
p1720
aV/home/kyle/anaconda/lib/python2.7/site-packages/matplotlib/mpl-data/fonts/afm/phvl8a.afm
p1721
aV/home/kyle/anaconda/lib/python2.7/site-packages/matplotlib/mpl-data/fonts/afm/cmsy10.afm
p1722
aV/home/kyle/anaconda/lib/python2.7/site-packages/matplotlib/mpl-data/fonts/pdfcorefonts/Courier-BoldOblique.afm
p1723
aV/home/kyle/anaconda/lib/python2.7/site-packages/matplotlib/mpl-data/fonts/pdfcorefonts/Times-Italic.afm
p1724
aV/home/kyle/anaconda/lib/python2.7/site-packages/matplotlib/mpl-data/fonts/afm/pbkdi8a.afm
p1725
aV/home/kyle/anaconda/lib/python2.7/site-packages/matplotlib/mpl-data/fonts/afm/cmr10.afm
p1726
aV/home/kyle/anaconda/lib/python2.7/site-packages/matplotlib/mpl-data/fonts/afm/pcrb8a.afm
p1727
aV/home/kyle/anaconda/lib/python2.7/site-packages/matplotlib/mpl-data/fonts/afm/putr8a.afm
p1728
aV/home/kyle/anaconda/lib/python2.7/site-packages/matplotlib/mpl-data/fonts/afm/pbkd8a.afm
p1729
aV/home/kyle/anaconda/lib/python2.7/site-packages/matplotlib/mpl-data/fonts/afm/phvbo8a.afm
p1730
aV/home/kyle/anaconda/lib/python2.7/site-packages/matplotlib/mpl-data/fonts/afm/pbkli8a.afm
p1731
aV/home/kyle/anaconda/lib/python2.7/site-packages/matplotlib/mpl-data/fonts/afm/phvb8a.afm
p1732
aV/home/kyle/anaconda/lib/python2.7/site-packages/matplotlib/mpl-data/fonts/afm/ptmbi8a.afm
p1733
aV/home/kyle/anaconda/lib/python2.7/site-packages/matplotlib/mpl-data/fonts/pdfcorefonts/Times-Roman.afm
p1734
aV/home/kyle/anaconda/lib/python2.7/site-packages/matplotlib/mpl-data/fonts/pdfcorefonts/Symbol.afm
p1735
aV/home/kyle/anaconda/lib/python2.7/site-packages/matplotlib/mpl-data/fonts/afm/pcrro8a.afm
p1736
aV/home/kyle/anaconda/lib/python2.7/site-packages/matplotlib/mpl-data/fonts/afm/pncb8a.afm
p1737
aV/home/kyle/anaconda/lib/python2.7/site-packages/matplotlib/mpl-data/fonts/afm/pagk8a.afm
p1738
aV/home/kyle/anaconda/lib/python2.7/site-packages/matplotlib/mpl-data/fonts/afm/pzdr.afm
p1739
aV/home/kyle/anaconda/lib/python2.7/site-packages/matplotlib/mpl-data/fonts/afm/psyr.afm
p1740
aV/home/kyle/anaconda/lib/python2.7/site-packages/matplotlib/mpl-data/fonts/pdfcorefonts/Helvetica-Oblique.afm
p1741
aV/home/kyle/anaconda/lib/python2.7/site-packages/matplotlib/mpl-data/fonts/pdfcorefonts/Times-BoldItalic.afm
p1742
aV/home/kyle/anaconda/lib/python2.7/site-packages/matplotlib/mpl-data/fonts/pdfcorefonts/Times-Bold.afm
p1743
aV/home/kyle/anaconda/lib/python2.7/site-packages/matplotlib/mpl-data/fonts/afm/putbi8a.afm
p1744
aV/home/kyle/anaconda/lib/python2.7/site-packages/matplotlib/mpl-data/fonts/afm/pagdo8a.afm
p1745
aV/home/kyle/anaconda/lib/python2.7/site-packages/matplotlib/mpl-data/fonts/pdfcorefonts/Helvetica-BoldOblique.afm
p1746
aV/home/kyle/anaconda/lib/python2.7/site-packages/matplotlib/mpl-data/fonts/afm/pcrr8a.afm
p1747
aV/home/kyle/anaconda/lib/python2.7/site-packages/matplotlib/mpl-data/fonts/afm/pagd8a.afm
p1748
aV/usr/share/fonts/X11/Type1/lmtt10.afm
p1749
aV/usr/share/fonts/X11/Type1/qcsri.afm
p1750
aV/usr/share/fonts/X11/Type1/lmssqo8.afm
p1751
aV/usr/share/fonts/type1/gsfonts/n019064l.afm
p1752
aV/usr/share/fonts/type1/gsfonts/b018015l.afm
p1753
aV/usr/share/fonts/X11/Type1/lmbxo10.afm
p1754
aV/usr/share/fonts/type1/gsfonts/c059036l.afm
p1755
aV/usr/share/fonts/type1/texlive-fonts-recommended/uplbi8a.afm
p1756
aV/usr/share/fonts/type1/gsfonts/n022024l.afm
p1757
aV/usr/share/fonts/X11/Type1/lmtlc10.afm
p1758
aV/usr/share/fonts/type1/gsfonts/n019004l.afm
p1759
aV/usr/share/fonts/X11/Type1/lmtk10.afm
p1760
aV/usr/share/fonts/X11/Type1/qbkr.afm
p1761
aV/usr/share/fonts/X11/Type1/lmdunh10.afm
p1762
aV/usr/share/fonts/type1/gsfonts/n019003l.afm
p1763
aV/usr/share/fonts/type1/texlive-fonts-recommended/ucrro8a.afm
p1764
aV/usr/share/fonts/type1/texlive-fonts-recommended/ubkli8a.afm
p1765
aV/usr/share/fonts/type1/texlive-fonts-recommended/uhvbo8ac.afm
p1766
aV/usr/share/fonts/type1/texlive-fonts-recommended/uagk8a.afm
p1767
aV/usr/share/fonts/type1/texlive-fonts-recommended/uhvro8a.afm
p1768
aV/usr/share/fonts/type1/gsfonts/a010015l.afm
p1769
aV/usr/share/fonts/X11/Type1/qcrr.afm
p1770
aV/usr/share/fonts/type1/texlive-fonts-recommended/ubkdi8a.afm
p1771
aV/usr/share/fonts/type1/texlive-fonts-recommended/pcrro8a.afm
p1772
aV/usr/share/fonts/type1/texlive-fonts-recommended/uncb8a.afm
p1773
aV/usr/share/fonts/type1/gsfonts/c059013l.afm
p1774
aV/usr/share/fonts/X11/Type1/lmssbx10.afm
p1775
aV/usr/share/fonts/X11/Type1/qhvcb.afm
p1776
aV/usr/share/fonts/X11/Type1/qtmb.afm
p1777
aV/usr/share/fonts/X11/Type1/lmvtlo10.afm
p1778
aV/usr/share/fonts/X11/Type1/lmtcso10.afm
p1779
aV/usr/share/fonts/X11/Type1/lmtti10.afm
p1780
aV/usr/share/fonts/X11/Type1/c0419bt_.afm
p1781
aV/usr/share/fonts/type1/gsfonts/n021024l.afm
p1782
aV/usr/share/fonts/type1/gsfonts/n019024l.afm
p1783
aV/usr/share/fonts/X11/Type1/qhvbi.afm
p1784
aV/usr/share/fonts/X11/Type1/qcsb.afm
p1785
aV/usr/share/fonts/X11/Type1/lmbx10.afm
p1786
aV/usr/share/fonts/type1/gsfonts/d050000l.afm
p1787
aV/usr/share/fonts/X11/Type1/lmssdo10.afm
p1788
aV/usr/share/fonts/X11/Type1/lmssqbx8.afm
p1789
aV/usr/share/fonts/X11/Type1/qhvb.afm
p1790
aV/usr/share/fonts/X11/Type1/lmb10.afm
p1791
aV/usr/share/fonts/type1/texlive-fonts-recommended/putri8a.afm
p1792
aV/usr/share/fonts/type1/texlive-fonts-recommended/ucrr8a.afm
p1793
aV/usr/share/fonts/X11/Type1/c0648bt_.afm
p1794
aV/usr/share/fonts/type1/gsfonts/z003034l.afm
p1795
aV/usr/share/fonts/X11/Type1/qhvr.afm
p1796
aV/usr/share/fonts/X11/Type1/lmbxi10.afm
p1797
aV/usr/share/fonts/type1/texlive-fonts-recommended/putb8a.afm
p1798
aV/usr/share/fonts/type1/texlive-fonts-recommended/putr8a.afm
p1799
aV/usr/share/fonts/type1/texlive-fonts-recommended/uzcmi8a.afm
p1800
aV/usr/share/fonts/X11/Type1/lmro10.afm
p1801
aV/usr/share/fonts/type1/gsfonts/p052004l.afm
p1802
aV/usr/share/fonts/X11/Type1/qplr.afm
p1803
aV/usr/share/fonts/type1/texlive-fonts-recommended/uhvbo8a.afm
p1804
aV/usr/share/fonts/X11/Type1/qcsr.afm
p1805
aV/usr/share/fonts/type1/texlive-fonts-recommended/uplri8a.afm
p1806
aV/usr/share/fonts/type1/texlive-fonts-recommended/utmri8a.afm
p1807
aV/usr/share/fonts/type1/gsfonts/a010013l.afm
p1808
aV/usr/share/fonts/X11/Type1/c0583bt_.afm
p1809
aV/usr/share/fonts/type1/texlive-fonts-recommended/ucrb8a.afm
p1810
aV/usr/share/fonts/X11/Type1/qagri.afm
p1811
aV/usr/share/fonts/X11/Type1/qbkbi.afm
p1812
aV/usr/share/fonts/type1/texlive-fonts-recommended/bchbi8a.afm
p1813
aV/usr/share/fonts/type1/texlive-fonts-recommended/uncbi8a.afm
p1814
aV/usr/share/fonts/X11/Type1/lmcsc10.afm
p1815
aV/usr/share/fonts/type1/texlive-fonts-recommended/ubkl8a.afm
p1816
aV/usr/share/fonts/X11/Type1/qbkb.afm
p1817
aV/usr/share/fonts/X11/Type1/qcrb.afm
p1818
aV/usr/share/fonts/X11/Type1/lmssqbo8.afm
p1819
aV/usr/share/fonts/type1/gsfonts/p052003l.afm
p1820
aV/usr/share/fonts/type1/gsfonts/b018032l.afm
p1821
aV/usr/share/fonts/X11/Type1/lmvtk10.afm
p1822
aV/usr/share/fonts/type1/gsfonts/n021023l.afm
p1823
aV/usr/share/fonts/X11/Type1/qhvri.afm
p1824
aV/usr/share/fonts/X11/Type1/lmtlo10.afm
p1825
aV/usr/share/fonts/X11/Type1/lmvtl10.afm
p1826
aV/usr/share/fonts/type1/gsfonts/n021003l.afm
p1827
aV/usr/share/fonts/X11/Type1/c0611bt_.afm
p1828
aV/usr/share/fonts/type1/gsfonts/s050000l.afm
p1829
aV/usr/share/fonts/type1/gsfonts/n021004l.afm
p1830
aV/usr/share/fonts/type1/gsfonts/p052024l.afm
p1831
aV/usr/share/fonts/X11/Type1/qtmri.afm
p1832
aV/usr/share/fonts/type1/texlive-fonts-recommended/uncr8a.afm
p1833
aV/usr/share/fonts/X11/Type1/qcrbi.afm
p1834
aV/usr/share/fonts/type1/texlive-fonts-recommended/putbi8a.afm
p1835
aV/usr/share/fonts/type1/gsfonts/n019063l.afm
p1836
aV/usr/share/fonts/X11/Type1/qtmr.afm
p1837
aV/usr/share/fonts/X11/Type1/lmtcsc10.afm
p1838
aV/usr/share/fonts/X11/Type1/lmcsco10.afm
p1839
aV/usr/share/fonts/X11/Type1/qagb.afm
p1840
aV/usr/share/fonts/X11/Type1/c0633bt_.afm
p1841
aV/usr/share/fonts/X11/Type1/lmvtto10.afm
p1842
aV/usr/share/fonts/type1/texlive-fonts-recommended/pcrbo8a.afm
p1843
aV/usr/share/fonts/X11/Type1/lmss10.afm
p1844
aV/usr/share/fonts/X11/Type1/lmvtt10.afm
p1845
aV/usr/share/fonts/type1/gsfonts/b018035l.afm
p1846
aV/usr/share/fonts/X11/Type1/lmduno10.afm
p1847
aV/usr/share/fonts/X11/Type1/qtmbi.afm
p1848
aV/usr/share/fonts/X11/Type1/qcsbi.afm
p1849
aV/usr/share/fonts/type1/texlive-fonts-recommended/pcrb8a.afm
p1850
aV/usr/share/fonts/type1/gsfonts/n022004l.afm
p1851
aV/usr/share/fonts/type1/mathml/Symbol.afm
p1852
aV/usr/share/fonts/X11/Type1/qhvcbi.afm
p1853
aV/usr/share/fonts/type1/texlive-fonts-recommended/uagko8a.afm
p1854
aV/usr/share/fonts/type1/texlive-fonts-recommended/uhvr8ac.afm
p1855
aV/usr/share/fonts/type1/texlive-fonts-recommended/uagd8a.afm
p1856
aV/usr/share/fonts/X11/Type1/lmri10.afm
p1857
aV/usr/share/fonts/X11/Type1/Symbol.afm
p1858
aV/usr/share/fonts/X11/Type1/lmr10.afm
p1859
aV/usr/share/fonts/X11/Type1/c0649bt_.afm
p1860
aV/usr/share/fonts/type1/texlive-fonts-recommended/uncri8a.afm
p1861
aV/usr/share/fonts/X11/Type1/lmtl10.afm
p1862
aV/usr/share/fonts/type1/texlive-fonts-recommended/usyr.afm
p1863
aV/usr/share/fonts/type1/texlive-fonts-recommended/uhvr8a.afm
p1864
aV/usr/share/fonts/X11/Type1/qplri.afm
p1865
aV/usr/share/fonts/X11/Type1/qagbi.afm
p1866
aV/usr/share/fonts/X11/Type1/qhvcr.afm
p1867
aV/usr/share/fonts/X11/Type1/lmtlco10.afm
p1868
aV/usr/share/fonts/type1/gsfonts/c059016l.afm
p1869
aV/usr/share/fonts/X11/Type1/qplb.afm
p1870
aV/usr/share/fonts/type1/gsfonts/n019044l.afm
p1871
aV/usr/share/fonts/type1/gsfonts/n022003l.afm
p1872
aV/usr/share/fonts/type1/gsfonts/a010033l.afm
p1873
aV/usr/share/fonts/X11/Type1/lmvtko10.afm
p1874
aV/usr/share/fonts/type1/texlive-fonts-recommended/bchri8a.afm
p1875
aV/usr/share/fonts/type1/texlive-fonts-recommended/bchb8a.afm
p1876
aV/usr/share/fonts/type1/gsfonts/c059033l.afm
p1877
aV/usr/share/fonts/type1/texlive-fonts-recommended/uplb8a.afm
p1878
aV/usr/share/fonts/X11/Type1/qcrri.afm
p1879
aV/usr/share/fonts/type1/texlive-fonts-recommended/ucrbo8a.afm
p1880
aV/usr/share/fonts/type1/texlive-fonts-recommended/uhvro8ac.afm
p1881
aV/usr/share/fonts/type1/texlive-fonts-recommended/ubkd8a.afm
p1882
aV/usr/share/fonts/type1/texlive-fonts-recommended/utmbi8a.afm
p1883
aV/usr/share/fonts/type1/texlive-fonts-recommended/uplr8a.afm
p1884
aV/usr/share/fonts/type1/texlive-fonts-recommended/uhvb8ac.afm
p1885
aV/usr/share/fonts/X11/Type1/c0582bt_.afm
p1886
aV/usr/share/fonts/type1/texlive-fonts-recommended/utmb8a.afm
p1887
aV/usr/share/fonts/type1/texlive-fonts-recommended/uhvb8a.afm
p1888
aV/usr/share/fonts/X11/Type1/lmssq8.afm
p1889
aV/usr/share/fonts/X11/Type1/lmssbo10.afm
p1890
aV/usr/share/fonts/type1/texlive-fonts-recommended/pcrr8a.afm
p1891
aV/usr/share/fonts/X11/Type1/qagr.afm
p1892
aV/usr/share/fonts/type1/gsfonts/n019043l.afm
p1893
aV/usr/share/fonts/type1/texlive-fonts-recommended/utmr8a.afm
p1894
aV/usr/share/fonts/type1/texlive-fonts-recommended/bchr8a.afm
p1895
aV/usr/share/fonts/type1/gsfonts/n019023l.afm
p1896
aV/usr/share/fonts/type1/gsfonts/b018012l.afm
p1897
aV/usr/share/fonts/X11/Type1/lmtko10.afm
p1898
aV/usr/share/fonts/X11/Type1/qzcmi.afm
p1899
aV/usr/share/fonts/X11/Type1/lmsso10.afm
p1900
aV/usr/share/fonts/X11/Type1/lmbo10.afm
p1901
aV/usr/share/fonts/type1/gsfonts/p052023l.afm
p1902
aV/usr/share/fonts/X11/Type1/qplbi.afm
p1903
aV/usr/share/fonts/type1/texlive-fonts-recommended/uagdo8a.afm
p1904
aV/usr/share/fonts/X11/Type1/lmssdc10.afm
p1905
aV/usr/share/fonts/X11/Type1/lmtto10.afm
p1906
aV/usr/share/fonts/type1/gsfonts/n022023l.afm
p1907
aV/usr/share/fonts/X11/Type1/qhvcri.afm
p1908
aV/usr/share/fonts/type1/gsfonts/a010035l.afm
p1909
aV/usr/share/fonts/X11/Type1/qbkri.afm
p1910
aV/usr/share/fonts/type1/texlive-fonts-recommended/uzdr.afm
p1911
aV/usr/share/fonts/X11/Type1/c0632bt_.afm
p1912
aV/usr/share/fonts/X11/Type1/lmu10.afm
p1913
asS'afmlist'
p1914
(lp1915
g1
(g8
g3
NtRp1916
(dp1917
g11
Vnormal
p1918
sg13
S'Utopia'
p1919
sg15
I700
sg16
g1918
sg17
g1918
sg18
g1687
sg20
Vscalable
p1920
sbag1
(g8
g3
NtRp1921
(dp1922
g11
Vitalic
p1923
sg13
S'New Century Schoolbook'
p1924
sg15
I700
sg16
g1918
sg17
g1918
sg18
g1690
sg20
g1920
sbag1
(g8
g3
NtRp1925
(dp1926
g11
g1923
sg13
S'Helvetica'
p1927
sg15
I500
sg16
Vcondensed
p1928
sg17
g1918
sg18
g1691
sg20
g1920
sbag1
(g8
g3
NtRp1929
(dp1930
g11
g1923
sg13
S'Palatino'
p1931
sg15
I500
sg16
g1918
sg17
g1918
sg18
g1692
sg20
g1920
sbag1
(g8
g3
NtRp1932
(dp1933
g11
g1918
sg13
S'ZapfDingbats'
p1934
sg15
I500
sg16
g1918
sg17
g1918
sg18
g1693
sg20
g1920
sbag1
(g8
g3
NtRp1935
(dp1936
g11
g1923
sg13
S'Helvetica'
p1937
sg15
I500
sg16
g1918
sg17
g1918
sg18
g1694
sg20
g1920
sbag1
(g8
g3
NtRp1938
(dp1939
g11
g1918
sg13
S'Times'
p1940
sg15
I500
sg16
g1918
sg17
g1918
sg18
g1695
sg20
g1920
sbag1
(g8
g3
NtRp1941
(dp1942
g11
g1918
sg13
S'Courier'
p1943
sg15
I700
sg16
g1918
sg17
g1918
sg18
g1696
sg20
g1920
sbag1
(g8
g3
NtRp1944
(dp1945
g11
g1923
sg13
S'ITC Zapf Chancery'
p1946
sg15
I500
sg16
g1918
sg17
g1918
sg18
g1697
sg20
g1920
sbag1
(g8
g3
NtRp1947
(dp1948
g11
g1923
sg13
S'Courier'
p1949
sg15
I700
sg16
g1918
sg17
g1918
sg18
g1698
sg20
g1920
sbag1
(g8
g3
NtRp1950
(dp1951
g11
g1918
sg13
S'Palatino'
p1952
sg15
I500
sg16
g1918
sg17
g1918
sg18
g1699
sg20
g1920
sbag1
(g8
g3
NtRp1953
(dp1954
g11
g1918
sg13
S'Helvetica'
p1955
sg15
I700
sg16
g1928
sg17
g1918
sg18
g1700
sg20
g1920
sbag1
(g8
g3
NtRp1956
(dp1957
g11
g1918
sg13
S'Computer Modern'
p1958
sg15
I500
sg16
g1918
sg17
g1918
sg18
g1701
sg20
g1920
sbag1
(g8
g3
NtRp1959
(dp1960
g11
g1918
sg13
S'Helvetica'
p1961
sg15
I500
sg16
g1918
sg17
g1918
sg18
g1702
sg20
g1920
sbag1
(g8
g3
NtRp1962
(dp1963
g11
g1923
sg13
S'Times'
p1964
sg15
I500
sg16
g1918
sg17
g1918
sg18
g1703
sg20
g1920
sbag1
(g8
g3
NtRp1965
(dp1966
g11
g1918
sg13
S'Courier'
p1967
sg15
I500
sg16
g1918
sg17
g1918
sg18
g1704
sg20
g1920
sbag1
(g8
g3
NtRp1968
(dp1969
g11
g1918
sg13
S'Helvetica'
p1970
sg15
I500
sg16
g1928
sg17
g1918
sg18
g1705
sg20
g1920
sbag1
(g8
g3
NtRp1971
(dp1972
g11
g1923
sg13
S'Courier'
p1973
sg15
I500
sg16
g1918
sg17
g1918
sg18
g1706
sg20
g1920
sbag1
(g8
g3
NtRp1974
(dp1975
g11
g1918
sg13
S'Times'
p1976
sg15
I700
sg16
g1918
sg17
g1918
sg18
g1707
sg20
g1920
sbag1
(g8
g3
NtRp1977
(dp1978
g11
g1918
sg13
S'Palatino'
p1979
sg15
I700
sg16
g1918
sg17
g1918
sg18
g1708
sg20
g1920
sbag1
(g8
g3
NtRp1980
(dp1981
g11
g1918
sg13
S'Helvetica'
p1982
sg15
I700
sg16
g1918
sg17
g1918
sg18
g1709
sg20
g1920
sbag1
(g8
g3
NtRp1983
(dp1984
g11
g1923
sg13
S'Utopia'
p1985
sg15
I400
sg16
g1918
sg17
g1918
sg18
g1710
sg20
g1920
sbag1
(g8
g3
NtRp1986
(dp1987
g11
g1923
sg13
S'Helvetica'
p1988
sg15
I200
sg16
g1918
sg17
g1918
sg18
g1711
sg20
g1920
sbag1
(g8
g3
NtRp1989
(dp1990
g11
g1918
sg13
S'ITC Bookman'
p1991
sg15
I200
sg16
g1918
sg17
g1918
sg18
g1712
sg20
g1920
sbag1
(g8
g3
NtRp1992
(dp1993
g11
g1918
sg13
S'Helvetica'
p1994
sg15
I500
sg16
g1918
sg17
g1918
sg18
g1713
sg20
g1920
sbag1
(g8
g3
NtRp1995
(dp1996
g11
g1923
sg13
S'ITC Avant Garde Gothic'
p1997
sg15
I400
sg16
g1918
sg17
g1918
sg18
g1714
sg20
g1920
sbag1
(g8
g3
NtRp1998
(dp1999
g11
g1918
sg13
S'Computer Modern'
p2000
sg15
I500
sg16
g1918
sg17
g1918
sg18
g1715
sg20
g1920
sbag1
(g8
g3
NtRp2001
(dp2002
g11
g1923
sg13
S'Computer Modern'
p2003
sg15
I500
sg16
g1918
sg17
g1918
sg18
g1716
sg20
g1920
sbag1
(g8
g3
NtRp2004
(dp2005
g11
g1923
sg13
S'New Century Schoolbook'
p2006
sg15
I500
sg16
g1918
sg17
g1918
sg18
g1717
sg20
g1920
sbag1
(g8
g3
NtRp2007
(dp2008
g11
g1923
sg13
S'Helvetica'
p2009
sg15
I700
sg16
g1928
sg17
g1918
sg18
g1718
sg20
g1920
sbag1
(g8
g3
NtRp2010
(dp2011
g11
g1923
sg13
S'Palatino'
p2012
sg15
I700
sg16
g1918
sg17
g1918
sg18
g1719
sg20
g1920
sbag1
(g8
g3
NtRp2013
(dp2014
g11
g1918
sg13
S'New Century Schoolbook'
p2015
sg15
I500
sg16
g1918
sg17
g1918
sg18
g1720
sg20
g1920
sbag1
(g8
g3
NtRp2016
(dp2017
g11
g1918
sg13
S'Helvetica'
p2018
sg15
I200
sg16
g1918
sg17
g1918
sg18
g1721
sg20
g1920
sbag1
(g8
g3
NtRp2019
(dp2020
g11
g1923
sg13
S'Computer Modern'
p2021
sg15
I500
sg16
g1918
sg17
g1918
sg18
g1722
sg20
g1920
sbag1
(g8
g3
NtRp2022
(dp2023
g11
g1923
sg13
S'Courier'
p2024
sg15
I700
sg16
g1918
sg17
g1918
sg18
g1723
sg20
g1920
sbag1
(g8
g3
NtRp2025
(dp2026
g11
g1923
sg13
S'Times'
p2027
sg15
I500
sg16
g1918
sg17
g1918
sg18
g1724
sg20
g1920
sbag1
(g8
g3
NtRp2028
(dp2029
g11
g1923
sg13
S'ITC Bookman'
p2030
sg15
I600
sg16
g1918
sg17
g1918
sg18
g1725
sg20
g1920
sbag1
(g8
g3
NtRp2031
(dp2032
g11
g1918
sg13
S'Computer Modern'
p2033
sg15
I500
sg16
g1918
sg17
g1918
sg18
g1726
sg20
g1920
sbag1
(g8
g3
NtRp2034
(dp2035
g11
g1918
sg13
S'Courier'
p2036
sg15
I700
sg16
g1918
sg17
g1918
sg18
g1727
sg20
g1920
sbag1
(g8
g3
NtRp2037
(dp2038
g11
g1918
sg13
S'Utopia'
p2039
sg15
I400
sg16
g1918
sg17
g1918
sg18
g1728
sg20
g1920
sbag1
(g8
g3
NtRp2040
(dp2041
g11
g1918
sg13
S'ITC Bookman'
p2042
sg15
I600
sg16
g1918
sg17
g1918
sg18
g1729
sg20
g1920
sbag1
(g8
g3
NtRp2043
(dp2044
g11
g1923
sg13
S'Helvetica'
p2045
sg15
I700
sg16
g1918
sg17
g1918
sg18
g1730
sg20
g1920
sbag1
(g8
g3
NtRp2046
(dp2047
g11
g1923
sg13
S'ITC Bookman'
p2048
sg15
I200
sg16
g1918
sg17
g1918
sg18
g1731
sg20
g1920
sbag1
(g8
g3
NtRp2049
(dp2050
g11
g1918
sg13
S'Helvetica'
p2051
sg15
I700
sg16
g1918
sg17
g1918
sg18
g1732
sg20
g1920
sbag1
(g8
g3
NtRp2052
(dp2053
g11
g1923
sg13
S'Times'
p2054
sg15
I700
sg16
g1918
sg17
g1918
sg18
g1733
sg20
g1920
sbag1
(g8
g3
NtRp2055
(dp2056
g11
g1918
sg13
S'Times'
p2057
sg15
I500
sg16
g1918
sg17
g1918
sg18
g1734
sg20
g1920
sbag1
(g8
g3
NtRp2058
(dp2059
g11
g1918
sg13
S'Symbol'
p2060
sg15
I500
sg16
g1918
sg17
g1918
sg18
g1735
sg20
g1920
sbag1
(g8
g3
NtRp2061
(dp2062
g11
g1923
sg13
S'Courier'
p2063
sg15
I500
sg16
g1918
sg17
g1918
sg18
g1736
sg20
g1920
sbag1
(g8
g3
NtRp2064
(dp2065
g11
g1918
sg13
S'New Century Schoolbook'
p2066
sg15
I700
sg16
g1918
sg17
g1918
sg18
g1737
sg20
g1920
sbag1
(g8
g3
NtRp2067
(dp2068
g11
g1918
sg13
S'ITC Avant Garde Gothic'
p2069
sg15
I400
sg16
g1918
sg17
g1918
sg18
g1738
sg20
g1920
sbag1
(g8
g3
NtRp2070
(dp2071
g11
g1918
sg13
S'ITC Zapf Dingbats'
p2072
sg15
I500
sg16
g1918
sg17
g1918
sg18
g1739
sg20
g1920
sbag1
(g8
g3
NtRp2073
(dp2074
g11
g1918
sg13
S'Symbol'
p2075
sg15
I500
sg16
g1918
sg17
g1918
sg18
g1740
sg20
g1920
sbag1
(g8
g3
NtRp2076
(dp2077
g11
g1923
sg13
S'Helvetica'
p2078
sg15
I500
sg16
g1918
sg17
g1918
sg18
g1741
sg20
g1920
sbag1
(g8
g3
NtRp2079
(dp2080
g11
g1923
sg13
S'Times'
p2081
sg15
I700
sg16
g1918
sg17
g1918
sg18
g1742
sg20
g1920
sbag1
(g8
g3
NtRp2082
(dp2083
g11
g1918
sg13
S'Times'
p2084
sg15
I700
sg16
g1918
sg17
g1918
sg18
g1743
sg20
g1920
sbag1
(g8
g3
NtRp2085
(dp2086
g11
g1923
sg13
S'Utopia'
p2087
sg15
I700
sg16
g1918
sg17
g1918
sg18
g1744
sg20
g1920
sbag1
(g8
g3
NtRp2088
(dp2089
g11
g1923
sg13
S'ITC Avant Garde Gothic'
p2090
sg15
I600
sg16
g1918
sg17
g1918
sg18
g1745
sg20
g1920
sbag1
(g8
g3
NtRp2091
(dp2092
g11
g1923
sg13
S'Helvetica'
p2093
sg15
I700
sg16
g1918
sg17
g1918
sg18
g1746
sg20
g1920
sbag1
(g8
g3
NtRp2094
(dp2095
g11
g1918
sg13
S'Courier'
p2096
sg15
I500
sg16
g1918
sg17
g1918
sg18
g1747
sg20
g1920
sbag1
(g8
g3
NtRp2097
(dp2098
g11
g1918
sg13
S'ITC Avant Garde Gothic'
p2099
sg15
I600
sg16
g1918
sg17
g1918
sg18
g1748
sg20
g1920
sbag1
(g8
g3
NtRp2100
(dp2101
g11
g1918
sg13
S'LMMono10'
p2102
sg15
I400
sg16
g1918
sg17
g1918
sg18
g1749
sg20
g1920
sbag1
(g8
g3
NtRp2103
(dp2104
g11
g1923
sg13
S'TeXGyreSchola'
p2105
sg15
I400
sg16
g1918
sg17
g1918
sg18
g1750
sg20
g1920
sbag1
(g8
g3
NtRp2106
(dp2107
g11
g1923
sg13
S'LMSansQuot8'
p2108
sg15
I400
sg16
g1918
sg17
g1918
sg18
g1751
sg20
g1920
sbag1
(g8
g3
NtRp2109
(dp2110
g11
g1923
sg13
S'Nimbus Sans L'
p2111
sg15
I700
sg16
g1928
sg17
g1918
sg18
g1752
sg20
g1920
sbag1
(g8
g3
NtRp2112
(dp2113
g11
g1918
sg13
S'URW Bookman L'
p2114
sg15
I700
sg16
g1918
sg17
g1918
sg18
g1753
sg20
g1920
sbag1
(g8
g3
NtRp2115
(dp2116
g11
g1923
sg13
S'LMRomanSlant10'
p2117
sg15
I700
sg16
g1918
sg17
g1918
sg18
g1754
sg20
g1920
sbag1
(g8
g3
NtRp2118
(dp2119
g11
g1923
sg13
S'Century Schoolbook L'
p2120
sg15
I700
sg16
g1918
sg17
g1918
sg18
g1755
sg20
g1920
sbag1
(g8
g3
NtRp2121
(dp2122
g11
g1923
sg13
S'URW Palladio L'
p2123
sg15
I700
sg16
g1918
sg17
g1918
sg18
g1756
sg20
g1920
sbag1
(g8
g3
NtRp2124
(dp2125
g11
g1923
sg13
S'Nimbus Mono L'
p2126
sg15
I700
sg16
g1918
sg17
g1918
sg18
g1757
sg20
g1920
sbag1
(g8
g3
NtRp2127
(dp2128
g11
g1918
sg13
S'LMMonoLtCond10'
p2129
sg15
I200
sg16
g1928
sg17
g1918
sg18
g1758
sg20
g1920
sbag1
(g8
g3
NtRp2130
(dp2131
g11
g1918
sg13
S'Nimbus Sans L'
p2132
sg15
I700
sg16
g1918
sg17
g1918
sg18
g1759
sg20
g1920
sbag1
(g8
g3
NtRp2133
(dp2134
g11
g1918
sg13
S'LMMonoLt10'
p2135
sg15
I700
sg16
g1918
sg17
g1918
sg18
g1760
sg20
g1920
sbag1
(g8
g3
NtRp2136
(dp2137
g11
g1918
sg13
S'TeXGyreBonum'
p2138
sg15
I400
sg16
g1918
sg17
g1918
sg18
g1761
sg20
g1920
sbag1
(g8
g3
NtRp2139
(dp2140
g11
g1918
sg13
S'LMRomanDunh10'
p2141
sg15
I400
sg16
g1918
sg17
g1918
sg18
g1762
sg20
g1920
sbag1
(g8
g3
NtRp2142
(dp2143
g11
g1918
sg13
S'Nimbus Sans L'
p2144
sg15
I400
sg16
g1918
sg17
g1918
sg18
g1763
sg20
g1920
sbag1
(g8
g3
NtRp2145
(dp2146
g11
g1923
sg13
S'Nimbus Mono L'
p2147
sg15
I400
sg16
g1918
sg17
g1918
sg18
g1764
sg20
g1920
sbag1
(g8
g3
NtRp2148
(dp2149
g11
g1923
sg13
S'URW Bookman L'
p2150
sg15
I400
sg16
g1918
sg17
g1918
sg18
g1765
sg20
g1920
sbag1
(g8
g3
NtRp2151
(dp2152
g11
g1923
sg13
S'Nimbus Sans L'
p2153
sg15
I700
sg16
g1928
sg17
g1918
sg18
g1766
sg20
g1920
sbag1
(g8
g3
NtRp2154
(dp2155
g11
g1918
sg13
S'URW Gothic L'
p2156
sg15
I400
sg16
g1918
sg17
g1918
sg18
g1767
sg20
g1920
sbag1
(g8
g3
NtRp2157
(dp2158
g11
g1923
sg13
S'Nimbus Sans L'
p2159
sg15
I400
sg16
g1918
sg17
g1918
sg18
g1768
sg20
g1920
sbag1
(g8
g3
NtRp2160
(dp2161
g11
g1918
sg13
S'URW Gothic L'
p2162
sg15
I600
sg16
g1918
sg17
g1918
sg18
g1769
sg20
g1920
sbag1
(g8
g3
NtRp2163
(dp2164
g11
g1918
sg13
S'TeXGyreCursor'
p2165
sg15
I400
sg16
g1918
sg17
g1918
sg18
g1770
sg20
g1920
sbag1
(g8
g3
NtRp2166
(dp2167
g11
g1923
sg13
S'URW Bookman L'
p2168
sg15
I700
sg16
g1918
sg17
g1918
sg18
g1771
sg20
g1920
sbag1
(g8
g3
NtRp2169
(dp2170
g11
g1918
sg13
S'Century Schoolbook L'
p2171
sg15
I700
sg16
g1918
sg17
g1918
sg18
g1773
sg20
g1920
sbag1
(g8
g3
NtRp2172
(dp2173
g11
g1918
sg13
S'Century Schoolbook L'
p2174
sg15
I500
sg16
g1918
sg17
g1918
sg18
g1774
sg20
g1920
sbag1
(g8
g3
NtRp2175
(dp2176
g11
g1918
sg13
S'LMSans10'
p2177
sg15
I700
sg16
g1918
sg17
g1918
sg18
g1775
sg20
g1920
sbag1
(g8
g3
NtRp2178
(dp2179
g11
g1918
sg13
S'TeXGyreHerosCondensed'
p2180
sg15
I700
sg16
g1928
sg17
g1918
sg18
g1776
sg20
g1920
sbag1
(g8
g3
NtRp2181
(dp2182
g11
g1918
sg13
S'TeXGyreTermes'
p2183
sg15
I700
sg16
g1918
sg17
g1918
sg18
g1777
sg20
g1920
sbag1
(g8
g3
NtRp2184
(dp2185
g11
g1923
sg13
S'LMMonoPropLt10'
p2186
sg15
I200
sg16
g1918
sg17
g1918
sg18
g1778
sg20
g1920
sbag1
(g8
g3
NtRp2187
(dp2188
g11
g1923
sg13
S'LMMonoCaps10'
p2189
sg15
I400
sg16
g1918
sg17
g1918
sg18
g1779
sg20
g1920
sbag1
(g8
g3
NtRp2190
(dp2191
g11
g1923
sg13
S'LMMono10'
p2192
sg15
I400
sg16
g1918
sg17
g1918
sg18
g1780
sg20
g1920
sbag1
(g8
g3
NtRp2193
(dp2194
g11
g1918
sg13
S'Courier 10 Pitch'
p2195
sg15
I400
sg16
g1918
sg17
g1918
sg18
g1781
sg20
g1920
sbag1
(g8
g3
NtRp2196
(dp2197
g11
g1923
sg13
S'Nimbus Roman No9 L'
p2198
sg15
I700
sg16
g1918
sg17
g1918
sg18
g1782
sg20
g1920
sbag1
(g8
g3
NtRp2199
(dp2200
g11
g1923
sg13
S'Nimbus Sans L'
p2201
sg15
I700
sg16
g1918
sg17
g1918
sg18
g1783
sg20
g1920
sbag1
(g8
g3
NtRp2202
(dp2203
g11
g1923
sg13
S'TeXGyreHeros'
p2204
sg15
I700
sg16
g1918
sg17
g1918
sg18
g1784
sg20
g1920
sbag1
(g8
g3
NtRp2205
(dp2206
g11
g1918
sg13
S'TeXGyreSchola'
p2207
sg15
I700
sg16
g1918
sg17
g1918
sg18
g1785
sg20
g1920
sbag1
(g8
g3
NtRp2208
(dp2209
g11
g1918
sg13
S'LMRoman10'
p2210
sg15
I700
sg16
g1918
sg17
g1918
sg18
g1786
sg20
g1920
sbag1
(g8
g3
NtRp2211
(dp2212
g11
g1918
sg13
S'Dingbats'
p2213
sg15
I400
sg16
g1918
sg17
g1918
sg18
g1787
sg20
g1920
sbag1
(g8
g3
NtRp2214
(dp2215
g11
g1923
sg13
S'LMSansDemiCond10'
p2216
sg15
I600
sg16
g1928
sg17
g1918
sg18
g1788
sg20
g1920
sbag1
(g8
g3
NtRp2217
(dp2218
g11
g1918
sg13
S'LMSansQuot8'
p2219
sg15
I700
sg16
g1918
sg17
g1918
sg18
g1789
sg20
g1920
sbag1
(g8
g3
NtRp2220
(dp2221
g11
g1918
sg13
S'TeXGyreHeros'
p2222
sg15
I700
sg16
g1918
sg17
g1918
sg18
g1790
sg20
g1920
sbag1
(g8
g3
NtRp2223
(dp2224
g11
g1918
sg13
S'LMRomanDemi10'
p2225
sg15
I600
sg16
g1918
sg17
g1918
sg18
g1791
sg20
g1920
sbag1
(g8
g3
NtRp2226
(dp2227
g11
g1918
sg13
S'Nimbus Mono L'
p2228
sg15
I400
sg16
g1918
sg17
g1918
sg18
g1793
sg20
g1920
sbag1
(g8
g3
NtRp2229
(dp2230
g11
g1918
sg13
S'Bitstream Charter'
p2231
sg15
I400
sg16
g1918
sg17
g1918
sg18
g1794
sg20
g1920
sbag1
(g8
g3
NtRp2232
(dp2233
g11
g1923
sg13
S'URW Chancery L'
p2234
sg15
I500
sg16
g1918
sg17
g1918
sg18
g1795
sg20
g1920
sbag1
(g8
g3
NtRp2235
(dp2236
g11
g1918
sg13
S'TeXGyreHeros'
p2237
sg15
I400
sg16
g1918
sg17
g1918
sg18
g1796
sg20
g1920
sbag1
(g8
g3
NtRp2238
(dp2239
g11
g1923
sg13
S'LMRoman10'
p2240
sg15
I700
sg16
g1918
sg17
g1918
sg18
g1797
sg20
g1920
sbag1
(g8
g3
NtRp2241
(dp2242
g11
g1923
sg13
S'URW Chancery L'
p2243
sg15
I500
sg16
g1918
sg17
g1918
sg18
g1800
sg20
g1920
sbag1
(g8
g3
NtRp2244
(dp2245
g11
g1923
sg13
S'LMRomanSlant10'
p2246
sg15
I400
sg16
g1918
sg17
g1918
sg18
g1801
sg20
g1920
sbag1
(g8
g3
NtRp2247
(dp2248
g11
g1918
sg13
S'URW Palladio L'
p2249
sg15
I700
sg16
g1918
sg17
g1918
sg18
g1802
sg20
g1920
sbag1
(g8
g3
NtRp2250
(dp2251
g11
g1918
sg13
S'TeXGyrePagella'
p2252
sg15
I400
sg16
g1918
sg17
g1918
sg18
g1803
sg20
g1920
sbag1
(g8
g3
NtRp2253
(dp2254
g11
g1923
sg13
S'Nimbus Sans L'
p2255
sg15
I700
sg16
g1918
sg17
g1918
sg18
g1804
sg20
g1920
sbag1
(g8
g3
NtRp2256
(dp2257
g11
g1918
sg13
S'TeXGyreSchola'
p2258
sg15
I400
sg16
g1918
sg17
g1918
sg18
g1805
sg20
g1920
sbag1
(g8
g3
NtRp2259
(dp2260
g11
g1923
sg13
S'URW Palladio L'
p2261
sg15
I400
sg16
g1918
sg17
g1918
sg18
g1806
sg20
g1920
sbag1
(g8
g3
NtRp2262
(dp2263
g11
g1923
sg13
S'Nimbus Roman No9 L'
p2264
sg15
I400
sg16
g1918
sg17
g1918
sg18
g1807
sg20
g1920
sbag1
(g8
g3
NtRp2265
(dp2266
g11
g1918
sg13
S'URW Gothic L'
p2267
sg15
I400
sg16
g1918
sg17
g1918
sg18
g1808
sg20
g1920
sbag1
(g8
g3
NtRp2268
(dp2269
g11
g1918
sg13
S'Courier 10 Pitch'
p2270
sg15
I700
sg16
g1918
sg17
g1918
sg18
g1809
sg20
g1920
sbag1
(g8
g3
NtRp2271
(dp2272
g11
g1918
sg13
S'Nimbus Mono L'
p2273
sg15
I700
sg16
g1918
sg17
g1918
sg18
g1810
sg20
g1920
sbag1
(g8
g3
NtRp2274
(dp2275
g11
g1923
sg13
S'TeXGyreAdventor'
p2276
sg15
I400
sg16
g1918
sg17
g1918
sg18
g1811
sg20
g1920
sbag1
(g8
g3
NtRp2277
(dp2278
g11
g1923
sg13
S'TeXGyreBonum'
p2279
sg15
I700
sg16
g1918
sg17
g1918
sg18
g1812
sg20
g1920
sbag1
(g8
g3
NtRp2280
(dp2281
g11
g1923
sg13
S'Bitstream Charter'
p2282
sg15
I700
sg16
g1918
sg17
g1918
sg18
g1813
sg20
g1920
sbag1
(g8
g3
NtRp2283
(dp2284
g11
g1923
sg13
S'Century Schoolbook L'
p2285
sg15
I700
sg16
g1918
sg17
g1918
sg18
g1814
sg20
g1920
sbag1
(g8
g3
NtRp2286
(dp2287
g11
g1918
sg13
S'LMRomanCaps10'
p2288
sg15
I400
sg16
g1918
sg17
g1918
sg18
g1815
sg20
g1920
sbag1
(g8
g3
NtRp2289
(dp2290
g11
g1918
sg13
S'URW Bookman L'
p2291
sg15
I400
sg16
g1918
sg17
g1918
sg18
g1816
sg20
g1920
sbag1
(g8
g3
NtRp2292
(dp2293
g11
g1918
sg13
S'TeXGyreBonum'
p2294
sg15
I700
sg16
g1918
sg17
g1918
sg18
g1817
sg20
g1920
sbag1
(g8
g3
NtRp2295
(dp2296
g11
g1918
sg13
S'TeXGyreCursor'
p2297
sg15
I700
sg16
g1918
sg17
g1918
sg18
g1818
sg20
g1920
sbag1
(g8
g3
NtRp2298
(dp2299
g11
g1923
sg13
S'LMSansQuot8'
p2300
sg15
I700
sg16
g1918
sg17
g1918
sg18
g1819
sg20
g1920
sbag1
(g8
g3
NtRp2301
(dp2302
g11
g1918
sg13
S'URW Palladio L'
p2303
sg15
I500
sg16
g1918
sg17
g1918
sg18
g1820
sg20
g1920
sbag1
(g8
g3
NtRp2304
(dp2305
g11
g1923
sg13
S'URW Bookman L'
p2306
sg15
I400
sg16
g1918
sg17
g1918
sg18
g1821
sg20
g1920
sbag1
(g8
g3
NtRp2307
(dp2308
g11
g1918
sg13
S'LMMonoPropLt10'
p2309
sg15
I700
sg16
g1918
sg17
g1918
sg18
g1822
sg20
g1920
sbag1
(g8
g3
NtRp2310
(dp2311
g11
g1923
sg13
S'Nimbus Roman No9 L'
p2312
sg15
I400
sg16
g1918
sg17
g1918
sg18
g1823
sg20
g1920
sbag1
(g8
g3
NtRp2313
(dp2314
g11
g1923
sg13
S'TeXGyreHeros'
p2315
sg15
I400
sg16
g1918
sg17
g1918
sg18
g1824
sg20
g1920
sbag1
(g8
g3
NtRp2316
(dp2317
g11
g1923
sg13
S'LMMonoLt10'
p2318
sg15
I200
sg16
g1918
sg17
g1918
sg18
g1825
sg20
g1920
sbag1
(g8
g3
NtRp2319
(dp2320
g11
g1918
sg13
S'LMMonoPropLt10'
p2321
sg15
I200
sg16
g1918
sg17
g1918
sg18
g1826
sg20
g1920
sbag1
(g8
g3
NtRp2322
(dp2323
g11
g1918
sg13
S'Nimbus Roman No9 L'
p2324
sg15
I400
sg16
g1918
sg17
g1918
sg18
g1827
sg20
g1920
sbag1
(g8
g3
NtRp2325
(dp2326
g11
g1923
sg13
S'Courier 10 Pitch'
p2327
sg15
I700
sg16
g1918
sg17
g1918
sg18
g1828
sg20
g1920
sbag1
(g8
g3
NtRp2328
(dp2329
g11
g1918
sg13
S'Standard Symbols L'
p2330
sg15
I400
sg16
g1918
sg17
g1918
sg18
g1829
sg20
g1920
sbag1
(g8
g3
NtRp2331
(dp2332
g11
g1918
sg13
S'Nimbus Roman No9 L'
p2333
sg15
I700
sg16
g1918
sg17
g1918
sg18
g1830
sg20
g1920
sbag1
(g8
g3
NtRp2334
(dp2335
g11
g1923
sg13
S'URW Palladio L'
p2336
sg15
I700
sg16
g1918
sg17
g1918
sg18
g1831
sg20
g1920
sbag1
(g8
g3
NtRp2337
(dp2338
g11
g1923
sg13
S'TeXGyreTermes'
p2339
sg15
I400
sg16
g1918
sg17
g1918
sg18
g1832
sg20
g1920
sbag1
(g8
g3
NtRp2340
(dp2341
g11
g1918
sg13
S'Century Schoolbook L'
p2342
sg15
I500
sg16
g1918
sg17
g1918
sg18
g1833
sg20
g1920
sbag1
(g8
g3
NtRp2343
(dp2344
g11
g1923
sg13
S'TeXGyreCursor'
p2345
sg15
I700
sg16
g1918
sg17
g1918
sg18
g1834
sg20
g1920
sbag1
(g8
g3
NtRp2346
(dp2347
g11
g1923
sg13
S'Nimbus Sans L'
p2348
sg15
I400
sg16
g1928
sg17
g1918
sg18
g1836
sg20
g1920
sbag1
(g8
g3
NtRp2349
(dp2350
g11
g1918
sg13
S'TeXGyreTermes'
p2351
sg15
I400
sg16
g1918
sg17
g1918
sg18
g1837
sg20
g1920
sbag1
(g8
g3
NtRp2352
(dp2353
g11
g1918
sg13
S'LMMonoCaps10'
p2354
sg15
I400
sg16
g1918
sg17
g1918
sg18
g1838
sg20
g1920
sbag1
(g8
g3
NtRp2355
(dp2356
g11
g1923
sg13
S'LMRomanCaps10'
p2357
sg15
I400
sg16
g1918
sg17
g1918
sg18
g1839
sg20
g1920
sbag1
(g8
g3
NtRp2358
(dp2359
g11
g1918
sg13
S'TeXGyreAdventor'
p2360
sg15
I700
sg16
g1918
sg17
g1918
sg18
g1840
sg20
g1920
sbag1
(g8
g3
NtRp2361
(dp2362
g11
g1923
sg13
S'Bitstream Charter'
p2363
sg15
I700
sg16
g1918
sg17
g1918
sg18
g1841
sg20
g1920
sbag1
(g8
g3
NtRp2364
(dp2365
g11
g1923
sg13
S'LMMonoProp10'
p2366
sg15
I400
sg16
g1918
sg17
g1918
sg18
g1842
sg20
g1920
sbag1
(g8
g3
NtRp2367
(dp2368
g11
g1918
sg13
S'LMSans10'
p2369
sg15
I400
sg16
g1918
sg17
g1918
sg18
g1844
sg20
g1920
sbag1
(g8
g3
NtRp2370
(dp2371
g11
g1918
sg13
S'LMMonoProp10'
p2372
sg15
I400
sg16
g1918
sg17
g1918
sg18
g1845
sg20
g1920
sbag1
(g8
g3
NtRp2373
(dp2374
g11
g1923
sg13
S'URW Bookman L'
p2375
sg15
I700
sg16
g1918
sg17
g1918
sg18
g1846
sg20
g1920
sbag1
(g8
g3
NtRp2376
(dp2377
g11
g1923
sg13
S'LMRomanDunh10'
p2378
sg15
I400
sg16
g1918
sg17
g1918
sg18
g1847
sg20
g1920
sbag1
(g8
g3
NtRp2379
(dp2380
g11
g1923
sg13
S'TeXGyreTermes'
p2381
sg15
I700
sg16
g1918
sg17
g1918
sg18
g1848
sg20
g1920
sbag1
(g8
g3
NtRp2382
(dp2383
g11
g1923
sg13
S'TeXGyreSchola'
p2384
sg15
I400
sg16
g1918
sg17
g1918
sg18
g1849
sg20
g1920
sbag1
(g8
g3
NtRp2385
(dp2386
g11
g1918
sg13
S'Nimbus Mono L'
p2387
sg15
I700
sg16
g1918
sg17
g1918
sg18
g1851
sg20
g1920
sbag1
(g8
g3
NtRp2388
(dp2389
g11
g1923
sg13
S'TeXGyreHerosCondensed'
p2390
sg15
I700
sg16
g1928
sg17
g1918
sg18
g1853
sg20
g1920
sbag1
(g8
g3
NtRp2391
(dp2392
g11
g1923
sg13
S'URW Gothic L'
p2393
sg15
I400
sg16
g1918
sg17
g1918
sg18
g1854
sg20
g1920
sbag1
(g8
g3
NtRp2394
(dp2395
g11
g1918
sg13
S'Nimbus Sans L'
p2396
sg15
I400
sg16
g1928
sg17
g1918
sg18
g1855
sg20
g1920
sbag1
(g8
g3
NtRp2397
(dp2398
g11
g1918
sg13
S'URW Gothic L'
p2399
sg15
I600
sg16
g1918
sg17
g1918
sg18
g1856
sg20
g1920
sbag1
(g8
g3
NtRp2400
(dp2401
g11
g1923
sg13
S'LMRoman10'
p2402
sg15
I400
sg16
g1918
sg17
g1918
sg18
g1857
sg20
g1920
sbag1
(g8
g3
NtRp2403
(dp2404
g11
g1918
sg13
S'LMRoman10'
p2405
sg15
I400
sg16
g1918
sg17
g1918
sg18
g1859
sg20
g1920
sbag1
(g8
g3
NtRp2406
(dp2407
g11
g1923
sg13
S'Bitstream Charter'
p2408
sg15
I400
sg16
g1918
sg17
g1918
sg18
g1860
sg20
g1920
sbag1
(g8
g3
NtRp2409
(dp2410
g11
g1923
sg13
S'Century Schoolbook L'
p2411
sg15
I400
sg16
g1918
sg17
g1918
sg18
g1861
sg20
g1920
sbag1
(g8
g3
NtRp2412
(dp2413
g11
g1918
sg13
S'LMMonoLt10'
p2414
sg15
I200
sg16
g1918
sg17
g1918
sg18
g1862
sg20
g1920
sbag1
(g8
g3
NtRp2415
(dp2416
g11
g1918
sg13
S'Standard Symbols L'
p2417
sg15
I400
sg16
g1918
sg17
g1918
sg18
g1863
sg20
g1920
sbag1
(g8
g3
NtRp2418
(dp2419
g11
g1918
sg13
S'Nimbus Sans L'
p2420
sg15
I400
sg16
g1918
sg17
g1918
sg18
g1864
sg20
g1920
sbag1
(g8
g3
NtRp2421
(dp2422
g11
g1923
sg13
S'TeXGyrePagella'
p2423
sg15
I400
sg16
g1918
sg17
g1918
sg18
g1865
sg20
g1920
sbag1
(g8
g3
NtRp2424
(dp2425
g11
g1923
sg13
S'TeXGyreAdventor'
p2426
sg15
I700
sg16
g1918
sg17
g1918
sg18
g1866
sg20
g1920
sbag1
(g8
g3
NtRp2427
(dp2428
g11
g1918
sg13
S'TeXGyreHerosCondensed'
p2429
sg15
I400
sg16
g1928
sg17
g1918
sg18
g1867
sg20
g1920
sbag1
(g8
g3
NtRp2430
(dp2431
g11
g1923
sg13
S'LMMonoLtCond10'
p2432
sg15
I200
sg16
g1928
sg17
g1918
sg18
g1868
sg20
g1920
sbag1
(g8
g3
NtRp2433
(dp2434
g11
g1918
sg13
S'Century Schoolbook L'
p2435
sg15
I700
sg16
g1918
sg17
g1918
sg18
g1869
sg20
g1920
sbag1
(g8
g3
NtRp2436
(dp2437
g11
g1918
sg13
S'TeXGyrePagella'
p2438
sg15
I700
sg16
g1918
sg17
g1918
sg18
g1870
sg20
g1920
sbag1
(g8
g3
NtRp2439
(dp2440
g11
g1918
sg13
S'Nimbus Sans L'
p2441
sg15
I700
sg16
g1928
sg17
g1918
sg18
g1871
sg20
g1920
sbag1
(g8
g3
NtRp2442
(dp2443
g11
g1918
sg13
S'Nimbus Mono L'
p2444
sg15
I400
sg16
g1918
sg17
g1918
sg18
g1872
sg20
g1920
sbag1
(g8
g3
NtRp2445
(dp2446
g11
g1923
sg13
S'URW Gothic L'
p2447
sg15
I400
sg16
g1918
sg17
g1918
sg18
g1873
sg20
g1920
sbag1
(g8
g3
NtRp2448
(dp2449
g11
g1923
sg13
S'LMMonoPropLt10'
p2450
sg15
I700
sg16
g1918
sg17
g1918
sg18
g1874
sg20
g1920
sbag1
(g8
g3
NtRp2451
(dp2452
g11
g1923
sg13
S'Bitstream Charter'
p2453
sg15
I400
sg16
g1918
sg17
g1918
sg18
g1875
sg20
g1920
sbag1
(g8
g3
NtRp2454
(dp2455
g11
g1918
sg13
S'Bitstream Charter'
p2456
sg15
I700
sg16
g1918
sg17
g1918
sg18
g1876
sg20
g1920
sbag1
(g8
g3
NtRp2457
(dp2458
g11
g1923
sg13
S'Century Schoolbook L'
p2459
sg15
I400
sg16
g1918
sg17
g1918
sg18
g1877
sg20
g1920
sbag1
(g8
g3
NtRp2460
(dp2461
g11
g1918
sg13
S'URW Palladio L'
p2462
sg15
I700
sg16
g1918
sg17
g1918
sg18
g1878
sg20
g1920
sbag1
(g8
g3
NtRp2463
(dp2464
g11
g1923
sg13
S'TeXGyreCursor'
p2465
sg15
I400
sg16
g1918
sg17
g1918
sg18
g1879
sg20
g1920
sbag1
(g8
g3
NtRp2466
(dp2467
g11
g1923
sg13
S'Nimbus Mono L'
p2468
sg15
I700
sg16
g1918
sg17
g1918
sg18
g1880
sg20
g1920
sbag1
(g8
g3
NtRp2469
(dp2470
g11
g1923
sg13
S'Nimbus Sans L'
p2471
sg15
I400
sg16
g1928
sg17
g1918
sg18
g1881
sg20
g1920
sbag1
(g8
g3
NtRp2472
(dp2473
g11
g1918
sg13
S'URW Bookman L'
p2474
sg15
I700
sg16
g1918
sg17
g1918
sg18
g1882
sg20
g1920
sbag1
(g8
g3
NtRp2475
(dp2476
g11
g1923
sg13
S'Nimbus Roman No9 L'
p2477
sg15
I700
sg16
g1918
sg17
g1918
sg18
g1883
sg20
g1920
sbag1
(g8
g3
NtRp2478
(dp2479
g11
g1918
sg13
S'URW Palladio L'
p2480
sg15
I500
sg16
g1918
sg17
g1918
sg18
g1884
sg20
g1920
sbag1
(g8
g3
NtRp2481
(dp2482
g11
g1918
sg13
S'Nimbus Sans L'
p2483
sg15
I700
sg16
g1928
sg17
g1918
sg18
g1885
sg20
g1920
sbag1
(g8
g3
NtRp2484
(dp2485
g11
g1923
sg13
S'Courier 10 Pitch'
p2486
sg15
I400
sg16
g1918
sg17
g1918
sg18
g1886
sg20
g1920
sbag1
(g8
g3
NtRp2487
(dp2488
g11
g1918
sg13
S'Nimbus Roman No9 L'
p2489
sg15
I700
sg16
g1918
sg17
g1918
sg18
g1887
sg20
g1920
sbag1
(g8
g3
NtRp2490
(dp2491
g11
g1918
sg13
S'Nimbus Sans L'
p2492
sg15
I700
sg16
g1918
sg17
g1918
sg18
g1888
sg20
g1920
sbag1
(g8
g3
NtRp2493
(dp2494
g11
g1918
sg13
S'LMSansQuot8'
p2495
sg15
I400
sg16
g1918
sg17
g1918
sg18
g1889
sg20
g1920
sbag1
(g8
g3
NtRp2496
(dp2497
g11
g1923
sg13
S'LMSans10'
p2498
sg15
I700
sg16
g1918
sg17
g1918
sg18
g1890
sg20
g1920
sbag1
(g8
g3
NtRp2499
(dp2500
g11
g1918
sg13
S'TeXGyreAdventor'
p2501
sg15
I400
sg16
g1918
sg17
g1918
sg18
g1892
sg20
g1920
sbag1
(g8
g3
NtRp2502
(dp2503
g11
g1918
sg13
S'Nimbus Sans L'
p2504
sg15
I400
sg16
g1928
sg17
g1918
sg18
g1893
sg20
g1920
sbag1
(g8
g3
NtRp2505
(dp2506
g11
g1918
sg13
S'Nimbus Roman No9 L'
p2507
sg15
I400
sg16
g1918
sg17
g1918
sg18
g1894
sg20
g1920
sbag1
(g8
g3
NtRp2508
(dp2509
g11
g1918
sg13
S'Bitstream Charter'
p2510
sg15
I400
sg16
g1918
sg17
g1918
sg18
g1895
sg20
g1920
sbag1
(g8
g3
NtRp2511
(dp2512
g11
g1923
sg13
S'Nimbus Sans L'
p2513
sg15
I400
sg16
g1918
sg17
g1918
sg18
g1896
sg20
g1920
sbag1
(g8
g3
NtRp2514
(dp2515
g11
g1918
sg13
S'URW Bookman L'
p2516
sg15
I400
sg16
g1918
sg17
g1918
sg18
g1897
sg20
g1920
sbag1
(g8
g3
NtRp2517
(dp2518
g11
g1923
sg13
S'LMMonoLt10'
p2519
sg15
I700
sg16
g1918
sg17
g1918
sg18
g1898
sg20
g1920
sbag1
(g8
g3
NtRp2520
(dp2521
g11
g1923
sg13
S'TeXGyreChorus'
p2522
sg15
I500
sg16
g1918
sg17
g1918
sg18
g1899
sg20
g1920
sbag1
(g8
g3
NtRp2523
(dp2524
g11
g1923
sg13
S'LMSans10'
p2525
sg15
I400
sg16
g1918
sg17
g1918
sg18
g1900
sg20
g1920
sbag1
(g8
g3
NtRp2526
(dp2527
g11
g1923
sg13
S'LMRomanDemi10'
p2528
sg15
I600
sg16
g1918
sg17
g1918
sg18
g1901
sg20
g1920
sbag1
(g8
g3
NtRp2529
(dp2530
g11
g1923
sg13
S'URW Palladio L'
p2531
sg15
I400
sg16
g1918
sg17
g1918
sg18
g1902
sg20
g1920
sbag1
(g8
g3
NtRp2532
(dp2533
g11
g1923
sg13
S'TeXGyrePagella'
p2534
sg15
I700
sg16
g1918
sg17
g1918
sg18
g1903
sg20
g1920
sbag1
(g8
g3
NtRp2535
(dp2536
g11
g1923
sg13
S'URW Gothic L'
p2537
sg15
I600
sg16
g1918
sg17
g1918
sg18
g1904
sg20
g1920
sbag1
(g8
g3
NtRp2538
(dp2539
g11
g1918
sg13
S'LMSansDemiCond10'
p2540
sg15
I600
sg16
g1928
sg17
g1918
sg18
g1905
sg20
g1920
sbag1
(g8
g3
NtRp2541
(dp2542
g11
g1923
sg13
S'LMMonoSlant10'
p2543
sg15
I400
sg16
g1918
sg17
g1918
sg18
g1906
sg20
g1920
sbag1
(g8
g3
NtRp2544
(dp2545
g11
g1923
sg13
S'Nimbus Mono L'
p2546
sg15
I400
sg16
g1918
sg17
g1918
sg18
g1907
sg20
g1920
sbag1
(g8
g3
NtRp2547
(dp2548
g11
g1923
sg13
S'TeXGyreHerosCondensed'
p2549
sg15
I400
sg16
g1928
sg17
g1918
sg18
g1908
sg20
g1920
sbag1
(g8
g3
NtRp2550
(dp2551
g11
g1923
sg13
S'URW Gothic L'
p2552
sg15
I600
sg16
g1918
sg17
g1918
sg18
g1909
sg20
g1920
sbag1
(g8
g3
NtRp2553
(dp2554
g11
g1923
sg13
S'TeXGyreBonum'
p2555
sg15
I400
sg16
g1918
sg17
g1918
sg18
g1910
sg20
g1920
sbag1
(g8
g3
NtRp2556
(dp2557
g11
g1918
sg13
S'Dingbats'
p2558
sg15
I400
sg16
g1918
sg17
g1918
sg18
g1911
sg20
g1920
sbag1
(g8
g3
NtRp2559
(dp2560
g11
g1918
sg13
S'Bitstream Charter'
p2561
sg15
I700
sg16
g1918
sg17
g1918
sg18
g1912
sg20
g1920
sbag1
(g8
g3
NtRp2562
(dp2563
g11
g1918
sg13
S'LMRomanUnsl10'
p2564
sg15
I400
sg16
g1918
sg17
g1918
sg18
g1913
sg20
g1920
sbasb.